(lp0
S'frederica_of_mecklenburg-strelitz'
p1
aS'armand_de_bourbon_prince_de_conti'
p2
aS'rebecca_asher'
p3
aS'richard_plantagenet_3rd_duke_of_york'
p4
aS'felix_of_bourbon-parma'
p5
aS'early_life_of_augustus'
p6
aS'john_de_la_pole_2nd_duke_of_suffolk'
p7
aS'dorothea_von_medem'
p8
aS'joseph_i_of_portugal'
p9
aS'grand_duke_george_mikhailovich_of_russia'
p10
aS'jadwiga_jagiellon'
p11
aS'luis_i_of_portugal'
p12
aS'camille_doncieux'
p13
aS'john_huston'
p14
aS'ava_helen_pauling'
p15
aS'jessie_matthews'
p16
aS'lady_catherine_grey'
p17
aS'francesco_ii_sforza'
p18
aS'patience_cooper'
p19
aS'victoria_princess_royal'
p20
aS'eliza_lynch'
p21
aS'matilda_of_england_duchess_of_saxony'
p22
aS'bonne_of_artois'
p23
aS'juliana_of_the_netherlands'
p24
aS'catherine_of_bjurum'
p25
aS'mr_a_helfferich'
p26
aS'eric_xiv_of_sweden'
p27
aS'charles_spencer_3rd_duke_of_marlborough'
p28
aS'joseph_i_holy_roman_emperor'
p29
aS'jean-hilaire_aubame'
p30
aS'humaira_begum'
p31
aS'bonne_of_bohemia'
p32
aS'hodierna_of_tripoli'
p33
aS'elizabeth_tilney'
p34
aS'john_loder_1898'
p35
aS'anne_neville'
p36
aS'anna_of_russia'
p37
aS'mary_tudor'
p38
aS'lois_irene_marshall'
p39
aS'marie_louise_elisabeth_dorleans'
p40
aS'lady_constance_malleson'
p41
aS'anne_stine_ingstad'
p42
aS'edward_of_portugal'
p43
aS'emily_donelson'
p44
aS'eleanor_stewart_princess_of_scotland'
p45
aS'devika_rani'
p46
aS'leland_hayward'
p47
aS'richard_ii_of_england'
p48
aS'princess_augusta_of_saxe-gotha'
p49
aS'edward_of_westminster'
p50
aS'james_buchanan_duke'
p51
aS'gig_young'
p52
aS'cecily_grey_marchioness_of_dorset'
p53
aS'vittoria_della_rovere'
p54
aS'sophia_dorothea_of_hanover'
p55
aS'virginia_woolf'
p56
aS'archduchess_maria_clementina_of_austria'
p57
aS'sancho_ii_of_pamplona'
p58
aS'wolfgang_wagner'
p59
aS'charles_townshend'
p60
aS'claude_of_valois'
p61
aS'mary_de_bohun'
p62
aS'william_drew_robeson_i'
p63
aS'infante_afonso_duke_of_porto'
p64
aS'george_tabori'
p65
aS'prince_frederick_of_hesse'
p66
aS'maol_choluim_ii_earl_of_fife'
p67
aS'caroline_harrison'
p68
aS'vladislaus_i_of_bohemia'
p69
aS'mstislav_of_chernigov'
p70
aS'robert_taylor_1911'
p71
aS'nero_claudius_drusus'
p72
aS'princess_marie_alexandra_of_baden'
p73
aS'ramon_berenguer_ii_count_of_barcelona'
p74
aS'charles_de_ligne_2nd_prince_of_arenberg'
p75
aS'isabella_of_jerusalem'
p76
aS'agnes_of_aquitaine'
p77
aS'phoebe_hearst'
p78
aS'henry_of_germany'
p79
aS'joanna_of_castile'
p80
aS'stanislovas_go_tautas'
p81
aS'desiree_clary'
p82
aS'john_of_islay_lord_of_the_isles'
p83
aS'agrippina_the_elder'
p84
aS'ludwig_i_of_bavaria'
p85
aS'tichi_wilkerson_kassel'
p86
aS'ulrike_eleonora_of_denmark'
p87
aS'akbar'
p88
aS'frederick_augustus_rutowsky'
p89
aS'john_iii_of_sweden'
p90
aS'frederick_vi_of_denmark'
p91
aS'art_babbitt'
p92
aS'sophie_of_pomerania'
p93
aS'basil_sydney'
p94
aS'frederick_ix_of_denmark'
p95
aS'joe_keaton'
p96
aS'princess_christine_louise_of_oettingen_oettingen'
p97
aS'pauline_koch'
p98
aS'roxelana'
p99
aS'maria_louisa_bustill'
p100
aS'anastasia_of_montenegro'
p101
aS'dick_powell'
p102
aS'clark_gable'
p103
aS'ferdinando_stanley_5th_earl_of_derby'
p104
aS'ferdinand_ii_of_portugal'
p105
aS'teresa_of_portugal'
p106
aS'alfonso_iii_of_aragon'
p107
aS'leila_pahlavi'
p108
aS'maria_theresa_of_austria'
p109
aS'gnaeus_domitius_ahenobarbus'
p110
aS'adela_of_normandy'
p111
aS'thaddeus_h_caraway'
p112
aS'blanche_yurka'
p113
aS'william_v_prince_of_orange'
p114
aS'diana_barrymore'
p115
aS'louis_the_younger'
p116
aS'barbara_of_celje'
p117
aS'moa_martinson'
p118
aS'catherine_of_braganza'
p119
aS'amenmesse'
p120
aS'caterina_sforza'
p121
aS'berenguela_of_leon'
p122
aS'kathleen_garman'
p123
aS'margaret_beaufort'
p124
aS'betty_shabazz'
p125
aS'bruttia_crispina'
p126
aS'brenda_marshall'
p127
aS'cosimo_i_de_medici_grand_duke_of_tuscany'
p128
aS'sam_houston'
p129
aS'marie_anne_de_bourbon'
p130
aS'barbara_bennett'
p131
aS'prince_louis_ferdinand_ii_of_prussia'
p132
aS'albert_iv_duke_of_bavaria'
p133
aS'henry_iv_of_france'
p134
aS'john_vi_kantakouzenos'
p135
aS'sophia_of_prussia'
p136
aS'william_bridges_adams'
p137
aS'gertrude_olmstead'
p138
aS'ethyle_cooke'
p139
aS'pedro_de_alcantara_tellez_giron_9th_duke_of_osuna'
p140
aS'emperor_kobun'
p141
aS'vasili_i_of_russia'
p142
aS'wilfrid_scawen_blunt'
p143
aS'rooke_house'
p144
aS'jacob_j_hinlopen'
p145
aS'chiang_ching-kuo'
p146
aS'harry_longabaugh'
p147
aS'edith_craig'
p148
aS'anna_akhmatova'
p149
aS'catherine_dolgorukov'
p150
aS'efrem_zimbalist'
p151
aS'emma_of_italy'
p152
aS'marie_sophie_of_hesse-kassel'
p153
aS'archduchess_sophie_of_austria'
p154
aS'pedro_of_castile'
p155
aS'maria_of_romania'
p156
aS'hetepheres'
p157
aS'catherine_of_york'
p158
aS'madeleine_de_la_tour_dauvergne'
p159
aS'sarah_churchill_duchess_of_marlborough'
p160
aS'llywelyn_the_great'
p161
aS'ragnhild_eriksdotter'
p162
aS'sarah'
p163
aS'margaret_leech'
p164
aS'constantine_xi'
p165
aS'tsarevich_alexei_petrovich_of_russia'
p166
aS'theodore_dwight_weld'
p167
aS'bernhard_of_lippe-biesterfeld'
p168
aS'caterina_micaela_of_spain'
p169
aS'louis_charles_count_of_eu'
p170
aS'alexander_the_great'
p171
aS'empress_dowager_longyu'
p172
aS'judy_moran'
p173
aS'jill_esmond'
p174
aS'thomas_de_beauchamp_11th_earl_of_warwick'
p175
aS'adrian_1903'
p176
aS'jack_oakie'
p177
aS'mary_augusta_ward'
p178
aS'louise_dresser'
p179
aS'infanta_isabel_duchess_of_burgundy'
p180
aS'zorka_of_montenegro'
p181
aS'prince_albert_of_prussia'
p182
aS'arthur_de_wint_foote'
p183
aS'jane_elizabeth_faulding'
p184
aS'vladimir_i_of_kiev'
p185
aS'princess_johanna_of_hesse_and_by_rhine'
p186
aS'clara_clemens'
p187
aS'arsinoe_i_of_egypt'
p188
aS'juan_manuel_de_rosas'
p189
aS'princess_alice_of_battenberg'
p190
aS'constance_of_austria'
p191
aS'pujie'
p192
aS'rogneda_of_polotsk'
p193
aS'gale_sondergaard'
p194
aS'honorius'
p195
aS'moina_mathers'
p196
aS'elisabeth_marguerite_of_orleans'
p197
aS'christopher_reeve'
p198
aS'maria_vladimirovna'
p199
aS'toregene_khatun'
p200
aS'frederick_i_of_prussia'
p201
aS'mary_shelley'
p202
aS'elizabeth_of_aragon'
p203
aS'geza_of_hungary'
p204
aS'maria_annunciata_of_the_two_sicilies'
p205
aS'louis_ii_prince_of_monaco'
p206
aS'isabella_duchess_of_lorraine'
p207
aS'samuel_dyer'
p208
aS'louis_x_duke_of_bavaria'
p209
aS'petronila_of_aragon'
p210
aS'thomas_gage'
p211
aS'elizabeth_pierrepont_duchess_of_kingston_upon_hull'
p212
aS'robert_e_lee'
p213
aS'nefertari'
p214
aS'helen_cherry'
p215
aS'george_i_of_greece'
p216
aS'thomas_howard_2nd_duke_of_norfolk'
p217
aS'princess_maria_josepha_of_saxony'
p218
aS'mildred_harnack'
p219
aS'count_aage_of_rosenborg'
p220
aS'empress_myeongseong'
p221
aS'seti_i'
p222
aS'maria_anna_of_spain'
p223
aS'paul_douglas_1907'
p224
aS'maud_gonne'
p225
aS'morris_w_morris'
p226
aS'antonio_de_medici'
p227
aS'anna_of_bohemia_and_hungary'
p228
aS'frederick_ii_of_prussia'
p229
aS'laura_e_richards'
p230
aS'ted_quinn'
p231
aS'almina_herbert_countess_of_carnarvon'
p232
aS'philip_the_arab'
p233
aS'james_scott_1st_duke_of_monmouth'
p234
aS'sara_northrup'
p235
aS'mary_pickford'
p236
aS'johann_theodor_of_bavaria'
p237
aS'janet_gaynor'
p238
aS'elizabeth_clinton_countess_of_lincoln'
p239
aS'robert_menzies'
p240
aS'zoe_akins'
p241
aS'lothair_iii_holy_roman_emperor'
p242
aS'philip_iv_of_france'
p243
aS'henry_herbert_10th_earl_of_pembroke'
p244
aS'supayalat'
p245
aS'marie_therese_charlotte_of_france'
p246
aS'otto_skorzeny'
p247
aS'alice_faye'
p248
aS'philippe_hurepel'
p249
aS'margaret_of_england'
p250
aS'amelia_earhart'
p251
aS'marion_margaret_violet_lindsay'
p252
aS'princess_marie_therese_of_france'
p253
aS'john_van_buren'
p254
aS'jiaqing_emperor'
p255
aS'olybrius'
p256
aS'doris_dowling'
p257
aS'james_ii_of_majorca'
p258
aS'worthy_lady_shun'
p259
aS'erich_elias'
p260
aS'empress_xiaoshen'
p261
aS'dixie_bibb_graves'
p262
aS'jenny_longuet'
p263
aS'reza_cyrus_pahlavi'
p264
aS'infante_carlos_count_of_molina'
p265
aS'bela_i_of_hungary'
p266
aS'george_of_denmark'
p267
aS'giovanni_paolo_i_sforza'
p268
aS'chudadhut_dharadilok'
p269
aS'louis_de_bourbon_comte_de_vermandois'
p270
aS'prince_aloys_of_liechtenstein'
p271
aS'thomas_palaiologos'
p272
aS'owen_moore'
p273
aS'mr_elmer_r_mcatee'
p274
aS'rachel_kempson'
p275
aS'frederick_august_i_duke_of_oldenburg'
p276
aS'maria_tarn'
p277
aS'ludwika_karolina_radziwill'
p278
aS'beatrice_arthur'
p279
aS'john_a_macdonald'
p280
aS'maria_of_austria'
p281
aS'antonia_minor'
p282
aS'octavia_minor'
p283
aS'helen_daughter_of_king_valdemar_i_of_denmark'
p284
aS'daewon-gun'
p285
aS'henry_irving'
p286
aS'comte_de_grignan'
p287
aS'samuel_p_bush'
p288
aS'victoria_of_the_united_kingdom'
p289
aS'kim_stanley'
p290
aS'kay_kendall'
p291
aS'isabel_de_beaumont'
p292
aS'richard_mulligan'
p293
aS'amelie_of_orleans'
p294
aS'harry_benham'
p295
aS'baldwin_v_count_of_flanders'
p296
aS'rose_fitzgerald_kennedy'
p297
aS'empress_xiao_yi'
p298
aS'infanta_antonia_of_portugal'
p299
aS'prince_gustav_adolf_duke_of_vasterbotten'
p300
aS'henri_dorleans_duc_daumale'
p301
aS'jacob'
p302
aS'ferdinand_iv_grand_duke_of_tuscany'
p303
aS'john_scott_harrison'
p304
aS'sarah_churchill'
p305
aS'angela_hitler'
p306
aS'louise_bryant'
p307
aS'william_a_wellman'
p308
aS'harriet_arbuthnot'
p309
aS'ben_lyon'
p310
aS'edward_viii_of_the_united_kingdom'
p311
aS'margaret_of_parma'
p312
aS'edvin_adolphson'
p313
aS'frederick_ponsonby_3rd_earl_of_bessborough'
p314
aS'sigismund_archduke_of_austria'
p315
aS'joel_mccrea'
p316
aS'edward_count_palatine_of_simmern'
p317
aS'ruth_hussey'
p318
aS'princess_theodora_of_greece_and_demark'
p319
aS'george_prince_of_rascia'
p320
aS'princess_louise_dorothea_of_prussia'
p321
aS'eleanor_holland'
p322
aS'cornelius_vanderbilt_ii'
p323
aS'gojong_of_korea'
p324
aS'grand_duchess_olga_alexandrovna_of_russia'
p325
aS'henri_matisse'
p326
aS'leonor_of_viseu'
p327
aS'kunigunda_of_slavonia'
p328
aS'william_i_of_normandy'
p329
aS'anne_louise_germaine_de_stael'
p330
aS'vincent_astor'
p331
aS'katarzyna_tomicka'
p332
aS'frederick_iii_duke_of_holstein_gottorp'
p333
aS'alexandra_fyodorovna'
p334
aS'august_of_saxe-coburg-kohary'
p335
aS'groucho_marx'
p336
aS'henry_ii_of_navarre'
p337
aS'ganna_walska'
p338
aS'mongkut'
p339
aS'andrew_stewart_scotland'
p340
aS'catherine_willoughby'
p341
aS'joan_hackett'
p342
aS'alix_of_thouars'
p343
aS'theodore_roosevelt_sr'
p344
aS'kaiulani'
p345
aS'general_tom_thumb'
p346
aS'maria_christina_of_austria'
p347
aS'toby_wing'
p348
aS'theodelinda'
p349
aS'adolphe_grand_duke_of_luxembourg'
p350
aS'anne_of_denmark'
p351
aS'isabella_of_mar'
p352
aS'james_butler_4th_earl_of_ormonde'
p353
aS'marie_henriette_of_austria'
p354
aS'henrietta_ponsonby_countess_of_bessborough'
p355
aS'keopuolani'
p356
aS'audra_lindley'
p357
aS'robert_riskin'
p358
aS'qi_empress'
p359
aS'isabella_of_valois'
p360
aS'ramon_berenguer_iii_count_of_barcelona'
p361
aS'louisa_maria_teresa_stuart'
p362
aS'anne_of_bohemia'
p363
aS'louis_hayward'
p364
aS'fulk_of_jerusalem'
p365
aS'poppaea_sabina'
p366
aS'mary_i_of_england'
p367
aS'afonso_i_of_portugal'
p368
aS'princess_marie_of_hohenzollern_sigmaringen'
p369
aS'frederika_of_hanover'
p370
aS'ezzo'
p371
aS'john_i_of_castile'
p372
aS'frederick_stafford'
p373
aS'laurence_olivier'
p374
aS'bennett_cerf'
p375
aS'elisabeth_of_austria_1526'
p376
aS'landgravine_amalie_of_hesse_darmstadt'
p377
aS'duc_dorleans'
p378
aS'thomas_howard_4th_duke_of_norfolk'
p379
aS'danilo_crown_prince_of_montenegro'
p380
aS'charles_james_mathews'
p381
aS'henry_of_grosmont_1st_duke_of_lancaster'
p382
aS'elizabeth_charlotte_princess_palatine'
p383
aS'pocahontas'
p384
aS'francis_ii_of_france'
p385
aS'maximilian_ii_emanuel_elector_of_bavaria'
p386
aS'sri_suriyendra'
p387
aS'charles_vi_of_france'
p388
aS'george_wallace'
p389
aS'cathy_quinn'
p390
aS'carl_von_clausewitz'
p391
aS'eliza_poe'
p392
aS'christine_marie_of_france'
p393
aS'charles_ii_of_navarre'
p394
aS'emily_mclaughlin'
p395
aS'margaret_murie'
p396
aS'empress_xiao_yi_ren'
p397
aS'alexander_cambridge_1st_earl_of_athlone'
p398
aS'christian_ii_of_denmark'
p399
aS'anne_louise_cornelis'
p400
aS'maria_sexton_clanton'
p401
aS'prince_alexander_of_the_netherlands'
p402
aS'cecile_of_france'
p403
aS'chief_powhatan'
p404
aS'sarah_bernhardt'
p405
aS'john_f_kennedy_jr'
p406
aS'alice_roosevelt_longworth'
p407
aS'humayun'
p408
aS'gunhilda_of_denmark'
p409
aS'otto_von_bismarck'
p410
aS'rodrigo_de_quiroga'
p411
aS'anastasia_of_russia'
p412
aS'elizabeth_simcoe'
p413
aS'prince_louis_ferdinand_of_bavaria'
p414
aS'magas_of_cyrene'
p415
aS'aethelthryth'
p416
aS'anne_hyde'
p417
aS'martha_raye'
p418
aS'frederick_i_of_wurttemberg'
p419
aS'carlos_conde_de_montemolin'
p420
aS'sophia_of_hanover'
p421
aS'john_fitzalan_1st_baron_arundel'
p422
aS'katrina_trask'
p423
aS'james_butler_5th_earl_of_ormonde'
p424
aS'mohammed_nadir_shah'
p425
aS'kirk_alyn'
p426
aS'lewis_moran'
p427
aS'stewart_granger'
p428
aS'princess_augusta_of_hesse-kassel'
p429
aS'matilda_of_carinthia'
p430
aS'prince_wilhelm_duke_of_sodermanland'
p431
aS'buster_keaton'
p432
aS'louise_defeo'
p433
aS'richard_brooks'
p434
aS'audrey_wurdemann'
p435
aS'tadj_ol-molouk'
p436
aS'william_iv_landgrave_of_hesse_kassel'
p437
aS'pierre_brasseur'
p438
aS'angelina_grimke'
p439
aS'louise_marie_anne_de_bourbon'
p440
aS'buddha_yodfa_chulaloke'
p441
aS'nicolaus_ludwig_zinzendorf'
p442
aS'alois_ii_prince_of_liechtenstein'
p443
aS'mary_owen_harris'
p444
aS'louise_of_hesse-kassel'
p445
aS'alfonso_iv_deste'
p446
aS'johanna_von_trapp'
p447
aS'william_i_of_the_netherlands'
p448
aS'elena_ceausescu'
p449
aS'helen_chandler'
p450
aS'hattie_caraway'
p451
aS'frederick_i_of_denmark'
p452
aS'augustus_fitzroy_3rd_duke_of_grafton'
p453
aS'charles_de_valois_duc_de_berry'
p454
aS'natalia_naryshkina'
p455
aS'agnes_of_merania'
p456
aS'johann_georg_chevalier_de_saxe'
p457
aS'valerie_hobson'
p458
aS'algernon_percy_10th_earl_of_northumberland'
p459
aS'henry_ross'
p460
aS'princess_marina_duchess_of_kent'
p461
aS'ptolemy_xiv_of_egypt'
p462
aS'lady_anne_cavendish_bentinck'
p463
aS'joan_princess_of_castile'
p464
aS'elisabeth_of_valois'
p465
aS'edmond_obrien'
p466
aS'lucy_parsons'
p467
aS'henutmire'
p468
aS'godfrey_i_of_leuven'
p469
aS'maria_antonia_of_portugal'
p470
aS'charles_xv_of_sweden'
p471
aS'john_jacob_rogers'
p472
aS'charles_brandon_1st_duke_of_suffolk'
p473
aS'daisy_bates'
p474
aS'wilhelm_grimm'
p475
aS'alfonso_iv_of_leon'
p476
aS'anne_duchess_of_luxembourg'
p477
aS'prince_frederick_charles_of_hesse'
p478
aS'antoine_philippe_duke_of_montpensier'
p479
aS'prince_konrad_of_bavaria'
p480
aS'elinor_darwin'
p481
aS'george_lutz'
p482
aS'jane_c_loudon'
p483
aS'louise_princess_royal_and_duchess_of_fife'
p484
aS'letitia_stevenson'
p485
aS'alexander_iii_of_scotland'
p486
aS'anna_neda_of_serbia'
p487
aS'karel_reisz'
p488
aS'teresa_princess_of_beira'
p489
aS'lynne_frederick'
p490
aS'nur_jehan'
p491
aS'princess_philippine_charlotte_of_prussia'
p492
aS'alice_de_toeni'
p493
aS'alexandra_georgievna_of_greece_and_denmark'
p494
aS'salomea_of_berg'
p495
aS'mary_of_york'
p496
aS'pamela_harriman'
p497
aS'galba'
p498
aS'henri_comte_de_chambord'
p499
aS'maximilian_i_holy_roman_emperor'
p500
aS'archduke_alexander_leopold_of_austria'
p501
aS'elizabeth_bourchier'
p502
aS'cleopatra_selene'
p503
aS'george_creel'
p504
aS'nancy_hanks'
p505
aS'princess_cecilia_of_sweden'
p506
aS'henrietta_maria_of_france'
p507
aS'antonia_major'
p508
aS'prince_joachim_of_prussia'
p509
aS'mary_cummings'
p510
aS'mountjoy_blount_1st_earl_of_newport'
p511
aS'gaius_julius_caesar_the_elder'
p512
aS'miles_malleson'
p513
aS'britannicus'
p514
aS'mary_i_of_portugal'
p515
aS'william_howard_1st_viscount_stafford'
p516
aS'christian_august_prince_of_anhalt_zerbst'
p517
aS'lucy_webb_hayes'
p518
aS'karl_iii_philip_elector_palatine'
p519
aS'margaret_woodrow_wilson'
p520
aS'eulalia_duchess_of_galliera'
p521
aS'mitzi_green'
p522
aS'princess_thyra_of_denmark'
p523
aS'anthony_ashley_cooper_9th_earl_of_shaftesbury'
p524
aS'louis_xv_of_france'
p525
aS'menelek_ii_of_ethiopia'
p526
aS'kalama'
p527
aS'zhen_luo'
p528
aS'princess_elisabeth_of_hesse'
p529
aS'gertrude_of_poland'
p530
aS'henry_iii_of_england'
p531
aS'charlotte_amelia_of_hesse-cassel'
p532
aS'charles_reed_bishop'
p533
aS'barbara_loden'
p534
aS'charles_iv_de_bourbon'
p535
aS'ida_of_lorraine'
p536
aS'henry_petty_fitzmaurice_5th_marquess_of_lansdowne'
p537
aS'anna_hyatt_huntington'
p538
aS'miguel_of_portugal'
p539
aS'thomas_plantagenet_2nd_earl_of_lancaster'
p540
aS'william_bullitt'
p541
aS'theodore_dwight_woolsey'
p542
aS'william_de_morgan'
p543
aS'yolande_de_dreux'
p544
aS'ethelred_the_unready'
p545
aS'tsarevich_ivan_ivanovich_of_russia'
p546
aS'gustaf_grundgens'
p547
aS'joachim_i_elector_of_brandenburg'
p548
aS'eliza_courtney'
p549
aS'irene_joliot-curie'
p550
aS'jacqueline_de_rohan_marquise_de_rothelin'
p551
aS'margaret_forrest'
p552
aS'elizabeth_seymour_duchess_of_somerset'
p553
aS'isabella_of_bourbon'
p554
aS'maximilian_ii_of_bavaria'
p555
aS'casimir_ii_of_poland'
p556
aS'domitian'
p557
aS'lady_frances_brandon'
p558
aS'olga_knipper'
p559
aS'louis_francois_ii_de_bourbon_prince_de_conti'
p560
aS'margherita_of_savoy'
p561
aS'woodrow_wilson'
p562
aS'charles_i_landgrave_of_hesse_kassel'
p563
aS'edgar_speyer'
p564
aS'esther_lederberg'
p565
aS'savang_vadhana'
p566
aS'henry_bilson_legge'
p567
aS'albert_i_duke_of_brunswick_luneburg'
p568
aS'kathleen_winsor'
p569
aS'marc_defeo'
p570
aS'eduard_duke_of_anhalt'
p571
aS'jimmy_fidler'
p572
aS'sue_carol'
p573
aS'gloria_swanson'
p574
aS'princess_elisabeth_of_anhalt'
p575
aS'emetullah_rabia_gulnus_sultan'
p576
aS'empress_jito'
p577
aS'thomas_arundell_1st_baron_arundell_of_wardour'
p578
aS'isabel_luisa_princess_of_beira'
p579
aS'edgar_of_england'
p580
aS'anne_of_great_britain'
p581
aS'grand_duke_nicholas_alexandrovich_of_russia'
p582
aS'saliha_sultan'
p583
aS'stilicho'
p584
aS'marguerite_of_france'
p585
aS'richard_i_of_normandy'
p586
aS'archduchess_maria_beatrix_of_austria_este'
p587
aS'rikissa_of_poland'
p588
aS'lois_andrews'
p589
aS'ramphaiphanni'
p590
aS'alfonso_carlos_duke_of_san_jaime'
p591
aS'maximilian_i_elector_of_bavaria'
p592
aS'john_emerson_1874'
p593
aS'amastris'
p594
aS'jeanne_iii_countess_of_burgundy'
p595
aS'benjamin_franklin'
p596
aS'maria_theresa_of_austria_and_tuscany'
p597
aS'john_connally'
p598
aS'georg_donatus_hereditary_grand_duke_of_hesse'
p599
aS'princess_louise_marie_of_belgium'
p600
aS'sam_marx'
p601
aS'ferdinand_maria_elector_of_bavaria'
p602
aS'alexandra_of_denmark'
p603
aS'philippa_of_hainault'
p604
aS'prince_georg_of_bavaria'
p605
aS'ptolemy_ix_lathyros'
p606
aS'aurelien_lugne-poe'
p607
aS'vivien_leigh'
p608
aS'cary_grant'
p609
aS'joan_of_kent'
p610
aS'wi_toslawa_i_of_bohemia'
p611
aS'beverly_bayne'
p612
aS'elbert_e_stephens'
p613
aS'elizabeth_boleyn_countess_of_wiltshire'
p614
aS'archduchess_marie_valerie_of_austria'
p615
aS'guangxu_emperor'
p616
aS'garcia_i_of_castile'
p617
aS'leo_i'
p618
aS'louisa_ulrika_of_prussia'
p619
aS'nellie_connally'
p620
aS'sviatoslav_i_of_kiev'
p621
aS'john_i_of_france'
p622
aS'mahaut_countess_of_artois'
p623
aS'archduchess_maria_anna_josepha_of_austria'
p624
aS'elisabeth_of_bohemia_princess_palatine'
p625
aS'agnes_bernauer'
p626
aS'ramiro_ii_of_leon'
p627
aS'nicu_ceausescu'
p628
aS'charles_iv_of_france'
p629
aS'afonso_v_of_portugal'
p630
aS'steve_brodie'
p631
aS'constance_of_portugal'
p632
aS'renata_of_lorraine'
p633
aS'afonso_ii_of_portugal'
p634
aS'marie_victoire_de_noailles'
p635
aS'james_ii_of_scotland'
p636
aS'archduke_charles_duke_of_teschen'
p637
aS'charlotte_of_albret'
p638
aS'joseph_bonaparte'
p639
aS'harriet_nelson'
p640
aS'son_sen'
p641
aS'johann_i_josef_prince_of_liechtenstein'
p642
aS'caroline_blackwood'
p643
aS'sofia_of_minsk'
p644
aS'lady_mary_wortley_montagu'
p645
aS'edward_r_murrow'
p646
aS'louie_bellson'
p647
aS'mikalojus_radvila_the_old'
p648
aS'princess_francisca_of_brazil'
p649
aS'maria_beatrice_ricciarda_deste'
p650
aS'frances_dee'
p651
aS'al_jolson'
p652
aS'richilde_of_provence'
p653
aS'karl_theodor_duke_in_bavaria'
p654
aS'adam_albert_von_neipperg'
p655
aS'guido_deiro'
p656
aS'amenhotep_ii'
p657
aS'albert_iii_elector_of_brandenburg'
p658
aS'patricia_kennedy_lawford'
p659
aS'ruth_chatterton'
p660
aS'marie_amalie_of_austria'
p661
aS'lady_anne_blunt'
p662
aS'guy_of_dampierre'
p663
aS'prince_karl_of_hesse_and_by_rhine'
p664
aS'john_sigismund_elector_of_brandenburg'
p665
aS'margaret_of_denmark'
p666
aS'frederick_ii_duke_of_saxe_gotha_altenburg'
p667
aS'prince_maurice_von_simmern'
p668
aS'ramon_berenguer_iv_count_of_barcelona'
p669
aS'radegund'
p670
aS'mary_welsh_hemingway'
p671
aS'william_asher_jr'
p672
aS'maria_kirillovna_of_russia'
p673
aS'barbara_of_poland'
p674
aS'aimee_du_buc_de_rivery'
p675
aS'sonia_mcmahon'
p676
aS'virginia_field'
p677
aS'ivan_v_of_russia'
p678
aS'adlai_e_stevenson'
p679
aS'manuel_i_of_trebizond'
p680
aS'charles_xiv_john_of_sweden'
p681
aS'diana_beauclerk_duchess_of_st_albans'
p682
aS'caecilius_calvert_2nd_baron_baltimore'
p683
aS'hamnet_shakespeare'
p684
aS'blanche_i_of_navarre'
p685
aS'kitty_carlisle_hart'
p686
aS'wallace_reid'
p687
aS'eva_braun'
p688
aS'gian_galeazzo_sforza'
p689
aS'archduchess_gisela_of_austria'
p690
aS'chulalongkorn'
p691
aS'werburgh'
p692
aS'princess_josephine_of_baden'
p693
aS'william_kissam_vanderbilt_ii'
p694
aS'blanche_of_navarre'
p695
aS'alexis_i_of_russia'
p696
aS'catharina_hooft'
p697
aS'george_keith_elphinstone_1st_viscount_keith'
p698
aS'princess_helena_duchess_of_albany'
p699
aS'maria_clotilde_of_savoy'
p700
aS'cairine_wilson'
p701
aS'clotaire_iii'
p702
aS'alice_of_bourbon_parma'
p703
aS'anne_of_york_duchess_of_exeter'
p704
aS'charles_ii_duke_of_lorraine'
p705
aS'leon_trotsky'
p706
aS'mabel_normand'
p707
aS'princess_charlotte_augusta_of_wales'
p708
aS'olga_drahonowska_malkowska'
p709
aS'christina_rossetti'
p710
aS'irene_doukaina_laskarina'
p711
aS'william_montagu_7th_duke_of_manchester'
p712
aS'anne_henriette_of_bavaria'
p713
aS'barbara_jo_allen'
p714
aS'max_schreck'
p715
aS'infanta_maria_de_la_paz_of_spain'
p716
aS'roland_bonaparte'
p717
aS'thomas_brassey_1st_earl_brassey'
p718
aS'eleanor_of_spain'
p719
aS'anne_butler_countess_of_ormond'
p720
aS'elias_disney'
p721
aS'alexander_korda'
p722
aS'therese_of_saxe_hildburghausen'
p723
aS'childeric_ii'
p724
aS'osman_iii'
p725
aS'john_iv_laskaris'
p726
aS'isabella_deste'
p727
aS'rachel_roberts'
p728
aS'john_roselli'
p729
aS'joy_shelton'
p730
aS'isabella_maria_of_parma'
p731
aS'elizabeth_mure'
p732
aS'muhammad_ali_jinnah'
p733
aS'teresa_karolina_rzewuska'
p734
aS'rudolph_i_of_germany'
p735
aS'andrei_vladimirovich_of_russia'
p736
aS'ivan_ii_of_russia'
p737
aS'arabella_huntington'
p738
aS'robert_sterling'
p739
aS'shia_view_of_ali'
p740
aS'isabella_of_angouleme'
p741
aS'w_h_auden'
p742
aS'harilal_gandhi'
p743
aS'jovian'
p744
aS'empress_dowager_teimei'
p745
aS'adelaide_rixa_of_poland'
p746
aS'doris_duke'
p747
aS'agnese_del_maino'
p748
aS'joseph_p_kennedy_sr'
p749
aS'alexander_stewart_1st_earl_of_buchan'
p750
aS'michael_shishman_of_bulgaria'
p751
aS'george_mountbatten_2nd_marquess_of_milford_haven'
p752
aS'ferdinand_i_of_austria'
p753
aS'augustus_iii_of_poland'
p754
aS'george_boole'
p755
aS'leonor_of_aragon'
p756
aS'albert_iii_duke_of_bavaria'
p757
aS'lavinia_warren'
p758
aS'philip_ii_of_macedon'
p759
aS'evelyn_venable'
p760
aS'zachary_scott'
p761
aS'louis_devreux'
p762
aS'karl_klindworth'
p763
aS'imperial_noble_consort_qing_gong'
p764
aS'prince_leopold_duke_of_brabant'
p765
aS'albert_lasker'
p766
aS'joan_greenwood'
p767
aS'alexander_ii_of_russia'
p768
aS'princess_margaret_of_connaught'
p769
aS'kalakua_kaheiheimaile'
p770
aS'sibylle_auguste_of_saxe_lauenburg'
p771
aS'myrna_loy'
p772
aS'james_waldegrave_1st_earl_waldegrave'
p773
aS'katharine_of_bohemia'
p774
aS'katarzyna_sobieska'
p775
aS'altovise_davis'
p776
aS'jane_greer'
p777
aS'maria_francesca_rossetti'
p778
aS'fatty_arbuckle'
p779
aS'theobald_ii_of_navarre'
p780
aS'amelie_de_beauharnais_of_leuchtenberg'
p781
aS'john_strange_spencer-churchill'
p782
aS'diego_rivera'
p783
aS'marie-anne_pierrette_paulze'
p784
aS'louis_xi_of_france'
p785
aS'grand_duke_sergey_mikhaylovich_of_russia'
p786
aS'gertrude_vanderbilt_whitney'
p787
aS'paul_i_of_russia'
p788
aS'louisa_hamilton_duchess_of_abercorn'
p789
aS'george_v_of_the_united_kingdom'
p790
aS'thomas_of_woodstock_1st_duke_of_gloucester'
p791
aS'caroline_of_bourbon_parma'
p792
aS'frederick_ii_holy_roman_emperor'
p793
aS'pyotr_ilyich_tchaikovsky'
p794
aS'gilbert_talbot_7th_earl_of_shrewsbury'
p795
aS'thomas_lincoln'
p796
aS'mahatma_gandhi'
p797
aS'katarina_stenbock'
p798
aS'nargis'
p799
aS'prince_henry_of_battenberg'
p800
aS'elizabeth_montgomery'
p801
aS'theodore_roosevelt_jr'
p802
aS'christian_v_of_denmark'
p803
aS'juan_prince_of_asturias'
p804
aS'harold_pinter'
p805
aS'charles_emmanuel_iii_of_sardinia'
p806
aS'victor_amadeus_iii_of_sardinia'
p807
aS'huey_long'
p808
aS'eleanor_anne_porden'
p809
aS'princess_charlotte_duchess_of_valentinois'
p810
aS'augusta_viktoria_of_schleswig-holstein'
p811
aS'archduchess_elisabeth_franziska_of_austria'
p812
aS'michael_redgrave'
p813
aS'charles_ix_of_sweden'
p814
aS'wulfhere_of_mercia'
p815
aS'natalia_alexeievna_of_russia'
p816
aS'william_de_longespee_3rd_earl_of_salisbury'
p817
aS'eustace_ii_of_boulogne'
p818
aS'nazli_sabri'
p819
aS'ludovico_sforza'
p820
aS'archduchess_karoline_marie_of_austria'
p821
aS'alan_curtis_1909'
p822
aS'baldwin_i_of_jerusalem'
p823
aS'edmund_lowe'
p824
aS'maria_of_brabant'
p825
aS'lady_jane_grey'
p826
aS'louisa_cavendish_duchess_of_devonshire'
p827
aS'judy_garland'
p828
aS'arlene_white_lawrence'
p829
aS'ibrahim_adil_shah_ii'
p830
aS'roger_ii_of_sicily'
p831
aS'prince_axel_of_denmark'
p832
aS'catherine_i_of_russia'
p833
aS'manuel_l_quezon'
p834
aS'robert_i_duke_of_burgundy'
p835
aS'alexander_hurley'
p836
aS'livilla'
p837
aS'larisa_shepitko'
p838
aS'prince_gustav_of_sweden'
p839
aS'james_madison'
p840
aS'ilse_ledermann'
p841
aS'wilfrid_laurier'
p842
aS'princess_eugenie_of_greece_and_denmark'
p843
aS'edgar_allan_poe'
p844
aS'giulia_de_medici'
p845
aS'robert_i_of_scotland'
p846
aS'edgar_bergen'
p847
aS'hadley_richardson'
p848
aS'hedwige_of_saxony'
p849
aS'wilhelmine_of_bayreuth'
p850
aS'constantine_vi'
p851
aS'anne_hopkins_aitken'
p852
aS'wendy_rene_bellar'
p853
aS'joan_butler_countess_of_ormond'
p854
aS'robert_nathan'
p855
aS'robert_i_duke_of_parma'
p856
aS'guy_de_beauchamp_10th_earl_of_warwick'
p857
aS'johnny_weissmuller'
p858
aS'charles_i_louis_elector_palatine'
p859
aS'murad_iv'
p860
aS'marie_antoinette_of_tuscany'
p861
aS'billy_sunday'
p862
aS'james_fitzgerald_1st_duke_of_leinster'
p863
aS'milan_obrenovic_iv'
p864
aS'abel_of_denmark'
p865
aS'hannah_van_buren'
p866
aS'peter_i_duke_of_brittany'
p867
aS'antonina_miliukova'
p868
aS'sabu_dastagir'
p869
aS'svetoslav_roerich'
p870
aS'ferdinand_iii_grand_duke_of_tuscany'
p871
aS'narisara_nuvadtivongs'
p872
aS'umberto_ii_of_italy'
p873
aS'catarina_of_spain'
p874
aS'marina_vlady'
p875
aS'webb_hayes'
p876
aS'john_hancock'
p877
aS'louise_auguste_of_denmark'
p878
aS'charles_guillaume_le_normant_detiolles'
p879
aS'prince_charles_of_belgium'
p880
aS'ferdinando_iii_de_medici'
p881
aS'alice_le_brun_de_lusignan'
p882
aS'nikolay_gumilyov'
p883
aS'mary_ball'
p884
aS'marie_of_brienne'
p885
aS'constance_of_hungary'
p886
aS'sancho_iv_of_castile'
p887
aS'magdalena_augusta_of_anhalt_zerbst'
p888
aS'andrew_jackson_donelson'
p889
aS'louis_of_bourbon_duke_of_orleans'
p890
aS'kamaladevi_chattopadhyay'
p891
aS'princess_sophie_of_bavaria'
p892
aS'granville_leveson_gower_2nd_earl_granville'
p893
aS'samuel_pepys'
p894
aS'boleslaw_iii_wrymouth'
p895
aS'elizabeth_allan_1908'
p896
aS'martina_von_trapp'
p897
aS'h_g_pelissier'
p898
aS'rudolf_of_rheinfeld'
p899
aS'joan_of_the_tower'
p900
aS'urraca_princess_of_castile'
p901
aS'edie_adams'
p902
aS'augusta_of_saxe-weimar'
p903
aS'william_harrell_felton'
p904
aS'clarice_mayne'
p905
aS'mary_todd_lincoln'
p906
aS'gabriele_rossetti'
p907
aS'dowager_duchess_of_richmond'
p908
aS'constance_smith'
p909
aS'robert_stevenson_1905'
p910
aS'grand_duke_vladimir_of_russia'
p911
aS'virginia_obrien'
p912
aS'charles_vii_holy_roman_emperor'
p913
aS'wilhelm_duke_of_julich_cleves_berg'
p914
aS'georgiana_drew'
p915
aS'prince_maximilian_of_baden'
p916
aS'athanagild'
p917
aS'blanche_of_burgundy'
p918
aS'georgiana_cavendish_duchess_of_devonshire'
p919
aS'frederick_iii_holy_roman_emperor'
p920
aS'giulietta_masina'
p921
aS'urraca_of_portugal'
p922
aS'don_carlos_prince_of_asturias'
p923
aS'michelle_of_valois'
p924
aS'vivian_vance'
p925
aS'vilhelmine_marie_of_denmark'
p926
aS'august_belmont'
p927
aS'princess_maria_amalia_of_bourbon_two_sicilies'
p928
aS'edward_francis_hutton'
p929
aS'cao_pi'
p930
aS'karin_mansdotter'
p931
aS'hyrum_smith'
p932
aS'augustine_washington'
p933
aS'ellen_terry'
p934
aS'elisabeth_christine_of_brunswick-bevern'
p935
aS'kishore_kumar'
p936
aS'sylvia_fine'
p937
aS'prince_william_of_gloucester'
p938
aS'alexander_farnese_duke_of_parma'
p939
aS'louis_xiv_of_france'
p940
aS'francis_i_of_the_two_sicilies'
p941
aS'osman_ii'
p942
aS'infante_francisco_duke_of_beja'
p943
aS'antoninus_pius'
p944
aS'david_lloyd_george'
p945
aS'sviatoslav_ii_of_kiev'
p946
aS'princess_amalie_auguste_of_bavaria'
p947
aS'jean_louis'
p948
aS'mae_murray'
p949
aS'francois_dauphin_of_france'
p950
aS'evelyn_laye'
p951
aS'charles_lindbergh'
p952
aS'reginald_de_braose'
p953
aS'shirley_booth'
p954
aS'yolande_of_aragon'
p955
aS'thomas_tollemache'
p956
aS'sylvia_ashley'
p957
aS'frances_folsom_cleveland'
p958
aS'victoria_kinoiki_kekaulike'
p959
aS'princess_marie_auguste_of_anhalt'
p960
aS'edzard_i_of_east_frisia'
p961
aS'ava_lowle_willing'
p962
aS'olga_kameneva'
p963
aS'john_duke_of_burgundy'
p964
aS'minamoto_no_yoshitomo'
p965
aS'abdul_hamid_i'
p966
aS'olga_san_juan'
p967
aS'otto_i_count_of_burgundy'
p968
aS'h_p_lovecraft'
p969
aS'george_spencer_churchill_8th_duke_of_marlborough'
p970
aS'huni'
p971
aS'hedda_hopper'
p972
aS'jacques_de_savoie_2nd_duc_de_nemours'
p973
aS'robert_ii_of_scotland'
p974
aS'louis_i_duke_of_bavaria'
p975
aS'geoffrey_ii_duke_of_brittany'
p976
aS'charles_de_bourbon_duc_de_berry'
p977
aS'harry_crosby'
p978
aS'mark_antony'
p979
aS'michael_i_of_romania'
p980
aS'balthild'
p981
aS'ferdinand_ii_of_castile'
p982
aS'ermenilda_of_ely'
p983
aS'william_cavendish_1st_earl_of_devonshire'
p984
aS'anne_duchess_of_maine'
p985
aS'humphrey_bogart'
p986
aS'john_seymour'
p987
aS'sam_walton'
p988
aS'maria_corda'
p989
aS'hermann_van_pels'
p990
aS'ahmose_i'
p991
aS'princess_helena_of_the_united_kingdom'
p992
aS'albert_ii_of_germany'
p993
aS'eustace_iv_of_boulogne'
p994
aS'granville_leveson_gower_1st_marquess_of_stafford'
p995
aS'john_ii_casimir_of_poland'
p996
aS'ferdinand_i_of_portugal'
p997
aS'frances_howard_countess_of_surrey'
p998
aS'john_drew_barrymore'
p999
aS'katharina_vasa'
p1000
aS'aemilia_tertia'
p1001
aS'perry_belmont'
p1002
aS'pepin_i_of_aquitaine'
p1003
aS'peter_von_biron'
p1004
aS'laura_borden'
p1005
aS'constantius_chlorus'
p1006
aS'john_duke_of_berry'
p1007
aS'charles_iv_of_spain'
p1008
aS'mary_arden'
p1009
aS'robert_stewart_1st_duke_of_albany'
p1010
aS'george_washington'
p1011
aS'flora_call_disney'
p1012
aS'archduchess_clementina_princess_of_salerno'
p1013
aS'kathy_lutz'
p1014
aS'gene_tierney'
p1015
aS'maurice_barrymore'
p1016
aS'clare_boothe_luce'
p1017
aS'francis_duke_of_teck'
p1018
aS'caitlin_macnamara'
p1019
aS'frances_bergen'
p1020
aS'nicholas_henri_duke_of_orleans'
p1021
aS'elisabeth_of_bavaria_queen_of_germany'
p1022
aS'peter_i_of_brazil'
p1023
aS'douglas_fairbanks_jr'
p1024
aS'leonora_of_england'
p1025
aS'maria_von_trapp'
p1026
aS'john_of_lancaster_1st_duke_of_bedford'
p1027
aS'lucilla'
p1028
aS'jan_radziwill'
p1029
aS'archduke_john_salvator_of_austria'
p1030
aS'charles_francis_adams_sr'
p1031
aS'philibert_ii_duke_of_savoy'
p1032
aS'hedwig_eleonora_of_holstein-gottorp'
p1033
aS'henry_percy_9th_earl_of_northumberland'
p1034
aS'bertha_of_burgundy'
p1035
aS'edward_keliiahonui'
p1036
aS'zbyslava_of_kiev'
p1037
aS'john_gilbert_1899'
p1038
aS'jose_maria_iglesias'
p1039
aS'francis_duke_of_guise'
p1040
aS'ines_de_castro'
p1041
aS'blanche_sweet'
p1042
aS'leslie_lynch_king_sr'
p1043
aS'john_i_duke_of_brittany'
p1044
aS'william_h_seward'
p1045
aS'henry_of_bourbon_montpensier_duke_of_montpensier'
p1046
aS'barbara_kola'
p1047
aS'francis_seymour_conway_1st_marquess_of_hertford'
p1048
aS'edmund_ironside'
p1049
aS'archibald_roosevelt'
p1050
aS'marguerite_of_france_1158'
p1051
aS'edith_bolling_wilson'
p1052
aS'anne_of_york'
p1053
aS'louis_armand_i_prince_of_conti'
p1054
aS'encarnacion_ezcurra'
p1055
aS'alys_countess_of_the_vexin'
p1056
aS'francois_dorleans_prince_de_joinville'
p1057
aS'sunjeong_of_korea'
p1058
aS'm_g_ramachandran'
p1059
aS'marie_of_mecklenburg_schwerin'
p1060
aS'virginia_heinlein'
p1061
aS'louis_francois_i_de_bourbon_prince_de_conti'
p1062
aS'mary_fielding_smith'
p1063
aS'madhubala'
p1064
aS'james_mcneill_whistler'
p1065
aS'leopold_grand_duke_of_baden'
p1066
aS'marge_champion'
p1067
aS'nathaniel_hawthorne'
p1068
aS'jean_peters'
p1069
aS'william_pitt_1st_earl_of_chatham'
p1070
aS'berenguer_ramon_i_count_of_barcelona'
p1071
aS'grand_duke_michael_alexandrovich_of_russia'
p1072
aS'aleksandra_sokolovskaya'
p1073
aS'claude_of_france'
p1074
aS'gertrud_of_supplingenburg'
p1075
aS'christian_iii_of_denmark'
p1076
aS'laura_martinozzi'
p1077
aS'william_backhouse_astor_sr'
p1078
aS'sophie_taeuber-arp'
p1079
aS'joan_beaufort_countess_of_westmorland'
p1080
aS'louise_francoise_de_bourbon'
p1081
aS'roger_atkinson_pryor'
p1082
aS'joseph'
p1083
aS'afonso_iii_of_portugal'
p1084
aS'princess_maria_elizabeth_of_sweden'
p1085
aS'lee_de_forest'
p1086
aS'lilian_baels'
p1087
aS'james_w_tate'
p1088
aS'dulce_berenguer'
p1089
aS'elisabeth_of_poland'
p1090
aS'paulette_goddard'
p1091
aS'empress_matilda'
p1092
aS'marguerite_de_navarre'
p1093
aS'napoleon_joseph_charles_paul_bonaparte'
p1094
aS'hugo_rumbold'
p1095
aS'blanche_ii_of_navarre'
p1096
aS'diana_princess_of_wales'
p1097
aS'gunnhild_mother_of_kings'
p1098
aS'joanna_i_of_auvergne'
p1099
aS'aregund_wife_of_clotaire_i'
p1100
aS'leslie_stephen'
p1101
aS'prince_aribert_of_anhalt'
p1102
aS'nevada_stoody_hayes'
p1103
aS'vasili_ii_of_russia'
p1104
aS'idries_shah'
p1105
aS'gunnery_sergeant_john_e_mullin'
p1106
aS'catherine_of_saxe-lauenburg'
p1107
aS'hermann_einstein'
p1108
aS'william_pitt_the_younger'
p1109
aS'thomas_clifford_8th_lord_of_skipton'
p1110
aS'rebecca_henriette_lejeune_dirichlet'
p1111
aS'paul_getty'
p1112
aS'prince_augustus_william_of_prussia'
p1113
aS'john_wayne'
p1114
aS'princess_esma'
p1115
aS'jack_webb'
p1116
aS'eadgifu_of_england'
p1117
aS'edzard_ii_count_of_east_frisia'
p1118
aS'grand_duke_dmitri_pavlovich_of_russia'
p1119
aS'prince_george_duke_of_cambridge'
p1120
aS'anton_chekhov'
p1121
aS'vladislaus_ii_of_bohemia_and_hungary'
p1122
aS'neferirkare_kakai'
p1123
aS'madeleine_de_bourbon-busset'
p1124
aS'nefertiti'
p1125
aS'barack_obama_sr'
p1126
aS'bona_sforza'
p1127
aS'victor_emmanuel_i_of_sardinia'
p1128
aS'lionel_monckton'
p1129
aS'ellen_lewis_herndon_arthur'
p1130
aS'charlotte_of_hesse_kassel'
p1131
aS'francis_i_holy_roman_emperor'
p1132
aS'valentinian_ii'
p1133
aS'afonso_vi_of_portugal'
p1134
aS'louise_whitfield_carnegie'
p1135
aS'harriet_g_walker'
p1136
aS'robert_a_heinlein'
p1137
aS'gustaf_vi_adolf_of_sweden'
p1138
aS'maria_amalia_of_the_two_sicilies'
p1139
aS'duke_george_augustus_of_mecklenburg'
p1140
aS'rudy_vallee'
p1141
aS'marcus_aurelius'
p1142
aS'richard_ii_duke_of_normandy'
p1143
aS'charlotte_garrigue'
p1144
aS'charles_emmanuel_ii_duke_of_savoy'
p1145
aS'auguste_de_beauharnais_2nd_duke_of_leuchtenberg'
p1146
aS'louis-philippe_of_france'
p1147
aS'charlotte_hennessy'
p1148
aS'elizabeth_wharton_drexel'
p1149
aS'muzio_sforza'
p1150
aS'mustafa_iii'
p1151
aS'william_seymour_2nd_duke_of_somerset'
p1152
aS'philippine_elisabeth_of_orleans'
p1153
aS'domitia_longina'
p1154
aS'gaius_marius_the_younger'
p1155
aS'nina_menshikova'
p1156
aS'shah_jahan'
p1157
aS'olga_konstantinovna_of_russia'
p1158
aS'frederick_hervey_4th_earl_of_bristol'
p1159
aS'charles_stewart_parnell'
p1160
aS'michael_wilding_1912'
p1161
aS'philip_duke_of_parma'
p1162
aS'henry_iii_duke_of_brabant'
p1163
aS'rasoherina_of_madagascar'
p1164
aS'anna_duchess_of_prussia'
p1165
aS'george_regas'
p1166
aS'empress_alute'
p1167
aS'john_allen_borgman'
p1168
aS'suzanne_duchess_of_bourbon'
p1169
aS'john_iii_duke_of_cleves'
p1170
aS'j_r_r_tolkien'
p1171
aS'john_pitt_2nd_earl_of_chatham'
p1172
aS'beatrice_of_england'
p1173
aS'humphrey_duke_of_gloucester'
p1174
aS'louis_iv_grand_duke_of_hesse'
p1175
aS'helen_walton'
p1176
aS'prince_kyril_of_bulgaria'
p1177
aS'harold_nicolson'
p1178
aS'janaki_ramachandran'
p1179
aS'maud_de_braose_baroness_wigmore'
p1180
aS'cleopatra_ii_of_egypt'
p1181
aS'grand_duke_constantine_pavlovich_of_russia'
p1182
aS'robert_ii_of_france'
p1183
aS'peggy_lee'
p1184
aS'adele_of_champagne'
p1185
aS'andronikos_iii_palaiologos'
p1186
aS'benjamin_peirce'
p1187
aS'gottfried_von_cramm'
p1188
aS'arleen_whelan'
p1189
aS'kalakaua'
p1190
aS'hildegard_of_savoy'
p1191
aS'richard_francis_burton'
p1192
aS'martha_gellhorn'
p1193
aS'henry_cary_1st_viscount_falkland'
p1194
aS'leona_helmsley'
p1195
aS'hemma'
p1196
aS'guyuk_khan'
p1197
aS'francis_x_bushman'
p1198
aS'ruth_nelson'
p1199
aS'siemomysl'
p1200
aS'michael_john_hurd'
p1201
aS'princess_marie_of_hesse_and_by_rhine'
p1202
aS'beatrice_of_portugal'
p1203
aS'william_the_silent'
p1204
aS'lois_nettleton'
p1205
aS'clovis_i'
p1206
aS'infante_sebastian_of_portugal_and_spain'
p1207
aS'august_belmont_jr'
p1208
aS'henry_rich_1st_earl_of_holland'
p1209
aS'debsirindra'
p1210
aS'mary_josephine_hannon_fitzgerald'
p1211
aS'philippe_charles_duke_of_anjou'
p1212
aS'archduke_johann_of_austria'
p1213
aS'alexander_i_of_russia'
p1214
aS'gower_champion'
p1215
aS'anita_loos'
p1216
aS'charles_iii_of_navarre'
p1217
aS'lewis_stevenson'
p1218
aS'mary_anne_disraeli_1st_viscountess_beaconsfield'
p1219
aS'harthacanute'
p1220
aS'princess_eudoxia_of_bulgaria'
p1221
aS'marie_hortense_fiquet'
p1222
aS'grand_duke_alexander_alexandrovich_of_russia'
p1223
aS'christiane_eberhardine_of_brandenburg_bayreuth'
p1224
aS'infanta_beatriz_of_spain'
p1225
aS'charles_lennox_1st_duke_of_richmond'
p1226
aS'thomas_holland_1st_earl_of_kent'
p1227
aS'leopold_i_duke_of_austria'
p1228
aS'jessadabodindra'
p1229
aS'princess_augusta_of_bavaria'
p1230
aS'garson_kanin'
p1231
aS'philippe_charles_3rd_count_of_arenberg'
p1232
aS'elizabeth_gaskell'
p1233
aS'william_iii_of_the_netherlands'
p1234
aS'samuel_liddell_macgregor_mathers'
p1235
aS'paul_scardon'
p1236
aS'william_wurster'
p1237
aS'sidney_james_webb_1st_baron_passfield'
p1238
aS'verree_teasdale'
p1239
aS'john_i_of_denmark'
p1240
aS'louis_xvii_of_france'
p1241
aS'keelikolani'
p1242
aS'ota_wife_of_arnulf_of_carinthia'
p1243
aS'frida_kahlo'
p1244
aS'ariel_durant'
p1245
aS'arthur_miller'
p1246
aS'augusta_of_brunswick_wolfenbuttel'
p1247
aS'eudoxia_streshneva'
p1248
aS'harold_holt'
p1249
aS'elizabeth_bibesco'
p1250
aS'joanna_iii_of_navarre'
p1251
aS'ann_hasseltine_judson'
p1252
aS'archduchess_maria_elisabeth_of_austria'
p1253
aS'dwight_morrow'
p1254
aS'henry_clifford_2nd_earl_of_cumberland'
p1255
aS'audie_murphy'
p1256
aS'peggy_ashcroft'
p1257
aS'franciszka_urszula_radziwillowa'
p1258
aS'patriarch_filaret'
p1259
aS'pierre_de_polignac'
p1260
aS'beatrice_of_savoy'
p1261
aS'barbara_stanwyck'
p1262
aS'soong_ai-ling'
p1263
aS'johannes_ii_prince_of_liechtenstein'
p1264
aS'prince_frederick_duke_of_york_and_albany'
p1265
aS'lucius_cary_2nd_viscount_falkland'
p1266
aS'vincente_minnelli'
p1267
aS'merle_oberon'
p1268
aS'george_clifford_3rd_earl_of_cumberland'
p1269
aS'robert_ii_duke_of_burgundy'
p1270
aS'isadora_duncan'
p1271
aS'lou_tellegen'
p1272
aS'olga_of_kiev'
p1273
aS'shelley_winters'
p1274
aS'arthur_iii_duke_of_brittany'
p1275
aS'eleanor_of_provence'
p1276
aS'zenobia_camprubi'
p1277
aS'elisabeth_forster-nietzsche'
p1278
aS'princess_charlotte_of_prussia'
p1279
aS'anne_of_france'
p1280
aS'walter_devereux_1st_earl_of_essex'
p1281
aS'olga_feodorovna_grand_duchess_of_russia'
p1282
aS'linus_pauling'
p1283
aS'william_russell_lord_russell'
p1284
aS'marian_hooper_adams'
p1285
aS'ethel_roosevelt_derby'
p1286
aS'laodice_iii'
p1287
aS'leopold_prince_of_hohenzollern_sigmaringen'
p1288
aS'ingund_wife_of_clotaire_i'
p1289
aS'salmon_brown'
p1290
aS'bud_westmore'
p1291
aS'princess_maria_francesca_of_savoy'
p1292
aS'prince_eugene_of_savoy'
p1293
aS'richard_denning'
p1294
aS'infanta_maria_teresa_of_spain'
p1295
aS'marie_anne_de_bourbon_conde'
p1296
aS'henry_herbert_9th_earl_of_pembroke'
p1297
aS'joseph_goebbels'
p1298
aS'lettice_knollys'
p1299
aS'cedella_marley_booker'
p1300
aS'gertrude_of_hohenburg'
p1301
aS'vladimir_pavlovich_paley'
p1302
aS'princess_hildegard_of_bavaria'
p1303
aS'alfonso_ix_of_leon'
p1304
aS'william_of_albania'
p1305
aS'sigismund_ii_augustus'
p1306
aS'maria_kaczynska'
p1307
aS'patricia_malone'
p1308
aS'fanny_normann'
p1309
aS'clarissa_eden_countess_of_avon'
p1310
aS'olave_baden-powell'
p1311
aS'isabel_barrows'
p1312
aS'jeanne_de_valois_queen_of_navarre'
p1313
aS'martin_luther'
p1314
aS'bette_davis'
p1315
aS'temple_houston'
p1316
aS'edmund_burke_roche_4th_baron_fermoy'
p1317
aS'amadeo_i_of_spain'
p1318
aS'mutemwiya_wife_of_thutmose_iv'
p1319
aS'isabel_burton'
p1320
aS'friedrich_ii_eugen_duke_of_wurttemberg'
p1321
aS'david_ii_of_scotland'
p1322
aS'princess_marianne_of_the_netherlands'
p1323
aS'mary_hayley_bell'
p1324
aS'louis_alexandre_de_bourbon_comte_de_toulouse'
p1325
aS'ernest_augustus_iii_duke_of_brunswick'
p1326
aS'fausta'
p1327
aS'louise_de_la_valliere'
p1328
aS'princess_elizabeth_countess_of_toerring_jettenbach'
p1329
aS'lolo_soetoro'
p1330
aS'mahidol_adulyadej'
p1331
aS'francoise_marie_de_bourbon'
p1332
aS'arnold_sandwith_ward'
p1333
aS'carloman_son_of_pippin_iii'
p1334
aS'henriette_adelaide_of_savoy'
p1335
aS'ruth_hanna_mccormick'
p1336
aS'prince_louis_charles_of_prussia'
p1337
aS'margarete_of_austria'
p1338
aS'sigrid_valdis'
p1339
aS'ryan_patrick_bellar'
p1340
aS'princess_alexandrine_of_prussia'
p1341
aS'clive_bell'
p1342
aS'franchot_tone'
p1343
aS'edward_v_of_england'
p1344
aS'kaahumanu_iii'
p1345
aS'infanta_maria_of_guimaraes'
p1346
aS'princess_nadejda_petrovna_of_russia'
p1347
aS'charles_theodore_elector_of_bavaria'
p1348
aS'princess_amelia_of_the_united_kingdom'
p1349
aS'kamehameha_ii'
p1350
aS'george_i_of_great_britain'
p1351
aS'barbara_of_austria'
p1352
aS'mimi_farina'
p1353
aS'ferdinand_i_holy_roman_emperor'
p1354
aS'jane_lawrence'
p1355
aS'jack_norworth'
p1356
aS'lord_leopold_mountbatten'
p1357
aS'frances_seymour_duchess_of_somerset'
p1358
aS'paul_rotha'
p1359
aS'frederick_ii_of_denmark'
p1360
aS'alma_reville'
p1361
aS'ben_bard'
p1362
aS'john_de_warenne_7th_earl_of_surrey'
p1363
aS'grand_duke_michael_pavlovich_of_russia'
p1364
aS'rita_childers'
p1365
aS'david_alfred_thomas'
p1366
aS'penelope_dudley_ward'
p1367
aS'erskine_hamilton_childers'
p1368
aS'ramesses_ii'
p1369
aS'john_frederick_duke_of_brunswick_luneburg'
p1370
aS'princess_viktoria_of_prussia'
p1371
aS'sunjong_of_korea'
p1372
aS'adolf_hitler'
p1373
aS'barbara_of_hesse'
p1374
aS'karol_stanislaw_panie_kochanku_radziwill'
p1375
aS'princess_mafalda_of_italy'
p1376
aS'joseph_ii_holy_roman_emperor'
p1377
aS'frederick_william_iii_of_prussia'
p1378
aS'peter_iii_of_aragon'
p1379
aS'charles_de_valois_duc_dorleans'
p1380
aS'prince_frederick_of_prussia'
p1381
aS'archduchess_maria_josepha_of_austria'
p1382
aS'princess_sophie_helene_beatrix_of_france'
p1383
aS'grand_duchess_alexandra_petrovna'
p1384
aS'madame_roland'
p1385
aS'henry_vii_of_england'
p1386
aS'john_rolfe'
p1387
aS'napoleon_victor_jerome_frederic_bonaparte'
p1388
aS'ethelbert_of_kent'
p1389
aS'zaifeng_2nd_prince_chun'
p1390
aS'eugene_de_beauharnais'
p1391
aS'olympias'
p1392
aS'charles_i_of_hungary'
p1393
aS'maximilian_iii_elector_of_bavaria'
p1394
aS'edna_best'
p1395
aS'anna_jagiellon'
p1396
aS'rene_i_of_naples'
p1397
aS'c_w_post'
p1398
aS'jean_shepherd'
p1399
aS'mehmed_iii'
p1400
aS'princess_henriette_duchess_of_vendome_and_alencon'
p1401
aS'john_stuart_3rd_earl_of_bute'
p1402
aS'henry_manners_8th_duke_of_rutland'
p1403
aS'allegra_byron'
p1404
aS'edward_of_middleham_prince_of_wales'
p1405
aS'edgiva_of_kent'
p1406
aS'elisabeth_christine_of_brunswick_wolfenbuttel'
p1407
aS'ouida_bergere'
p1408
aS'colleen_dewhurst'
p1409
aS'hieronim_florian_radziwill'
p1410
aS'joseph_e_davies'
p1411
aS'annette_vadim'
p1412
aS'evelyn_de_morgan'
p1413
aS'elisabeth_of_romania'
p1414
aS'eugene_maurice_of_savoy_carignano'
p1415
aS'franz_ledermann'
p1416
aS'john_parke_custis'
p1417
aS'john_lee_mahin'
p1418
aS'pedro_v_of_portugal'
p1419
aS'magda_lupescu'
p1420
aS'margaret_of_thuringia'
p1421
aS'yaropolk_izyaslavich'
p1422
aS'aristotle_onassis'
p1423
aS'lauren_bacall'
p1424
aS'eileen_lonergan'
p1425
aS'william_i_german_emperor'
p1426
aS'sarah_louisa_fairbrother'
p1427
aS'elisabeth_of_wurttemberg'
p1428
aS'ulugh_beg'
p1429
aS'john_de_bohun_5th_earl_of_hereford'
p1430
aS'prince_frederick_adolf_of_sweden'
p1431
aS'napoleon_i_of_france'
p1432
aS'louis_xii_of_france'
p1433
aS'mirza_ghiyas_beg'
p1434
aS'catharina_of_sweden'
p1435
aS'alexandra_fyodorovna_of_hesse'
p1436
aS'fred_niblo'
p1437
aS'isabella_of_asturias'
p1438
aS'katherine_swynford'
p1439
aS'gustavus_adolphus_of_sweden'
p1440
aS'george_jay_gould_ii'
p1441
aS'lotte_lenya'
p1442
aS'margaret_theresa_of_spain'
p1443
aS'berengaria_of_portugal'
p1444
aS'vibia_sabina'
p1445
aS'konrad_iii_rudy'
p1446
aS'mercedes_of_orleans'
p1447
aS'carol_lambrino'
p1448
aS'margaret_grubb'
p1449
aS'duarte_nuno_duke_of_braganza'
p1450
aS'maria_de_padilla'
p1451
aS'thomas_r_marshall'
p1452
aS'philippe_i_duke_of_orleans'
p1453
aS'wilma_t_workman'
p1454
aS'olga_nicolaievna_of_russia'
p1455
aS'pete_candoli'
p1456
aS'amenhotep_iii'
p1457
aS'prince_charles_of_prussia'
p1458
aS'marguerite_of_provence'
p1459
aS'boleslaw_iv_the_curly'
p1460
aS'ordono_ii_of_leon'
p1461
aS'sidney_blackmer'
p1462
aS'infanta_amelia_philippina_of_spain'
p1463
aS'elena_pavlovna_of_russia'
p1464
aS'louis_the_pious'
p1465
aS'maximilian_prince_of_saxony'
p1466
aS'magdalen_dacre_viscountess_montagu'
p1467
aS'empress_justina'
p1468
aS'benigno_aquino_jr'
p1469
aS'andree_vaurabourg'
p1470
aS'frank_rosenthal'
p1471
aS'winifred_wagner'
p1472
aS'isabeau_of_bavaria'
p1473
aS'ava_alice_muriel_astor'
p1474
aS'abigail_fillmore'
p1475
aS'maria_anna_of_sardinia'
p1476
aS'edith_kingdon'
p1477
aS'mrs_w_grimm'
p1478
aS'cecilia_renata_of_austria'
p1479
aS'john_maitland_1st_duke_of_lauderdale'
p1480
aS'elizabeth_kahanu_kalanianaole'
p1481
aS'mustafa_iv'
p1482
aS'cleopatra_thea'
p1483
aS'queen_maya'
p1484
aS'fred_perry'
p1485
aS'margaret_brown'
p1486
aS'eudoxia_lopukhina'
p1487
aS'anne_marie_of_orleans'
p1488
aS'domhnall_of_islay_lord_of_the_isles'
p1489
aS'constantine_i'
p1490
aS'mahmud_i'
p1491
aS'corinne_roosevelt_robinson'
p1492
aS'douglas_fairbanks'
p1493
aS'agnes_taylor'
p1494
aS'george_ii_of_great_britain'
p1495
aS'prince_georges_v_matchabelli'
p1496
aS'mikolaj_the_red_radziwill'
p1497
aS'constantine_v'
p1498
aS'sonja_bernadotte'
p1499
aS'anne_boleyn'
p1500
aS'sneferu'
p1501
aS'pierre_gemayel'
p1502
aS'mary_phelps_jacob'
p1503
aS'julian_steward'
p1504
aS'pompeia_sulla'
p1505
aS'alice_betty_stern'
p1506
aS'edward_james'
p1507
aS'salvador_dali'
p1508
aS'tongzhi_emperor'
p1509
aS'marie_of_prussia'
p1510
aS'james_stewart_1st_earl_of_moray'
p1511
aS'prince_aly_khan'
p1512
aS'mark_moran_1964'
p1513
aS'andronikos_iv_palaiologos'
p1514
aS'morton_downey'
p1515
aS'martin_luther_king_jr'
p1516
aS'alexey_razumovsky'
p1517
aS'jennifer_jones'
p1518
aS'thomas_quiney'
p1519
aS'thomas_montacute_4th_earl_of_salisbury'
p1520
aS'mohammed_zahir_shah'
p1521
aS'princess_louise_of_denmark'
p1522
aS'troy_ryan_bellar'
p1523
aS'aaron_spelling'
p1524
aS'anny_ondra'
p1525
aS'louis_philippe_ii_duke_of_orleans'
p1526
aS'leonida_georgievna_bagration-moukhranskaya'
p1527
aS'joan_of_portugal'
p1528
aS'maurice_comte_de_saxe'
p1529
aS'elvira_of_toro_infanta_of_leon'
p1530
aS'alice_de_warenne'
p1531
aS'teresa_bagioli_sickles'
p1532
aS'adolf_duke_of_holstein_gottorp'
p1533
aS'clemintine_clarke'
p1534
aS'the_new_york_times'
p1535
aS'princess_margaretha_of_sweden'
p1536
aS'louis_ix_of_france'
p1537
aS'nikephoros_ii'
p1538
aS'natalya_alexeevna'
p1539
aS'prince_augustus_frederick_duke_of_sussex'
p1540
aS'irene'
p1541
aS'mabel_gardiner_hubbard'
p1542
aS'grace_kelly'
p1543
aS'vivien_merchant'
p1544
aS'maximian'
p1545
aS'yixuan_1st_prince_chun'
p1546
aS'samuel_j_barrows'
p1547
aS'james_monroe'
p1548
aS'elizabeth_tanfield_cary'
p1549
aS'carlos_hugo_of_bourbon_duke_of_parma'
p1550
aS'francis_darwin'
p1551
aS'alix_of_france'
p1552
aS'coretta_scott_king'
p1553
aS'margaret_of_sicily'
p1554
aS'john_payne_1912'
p1555
aS'mary_of_guise'
p1556
aS'sofie_of_mecklenburg-schwerin'
p1557
aS'henry_ii_of_england'
p1558
aS'grand_duke_peter_nicolaievich_of_russia'
p1559
aS'ernest_hemingway'
p1560
aS'catherine_of_lancaster'
p1561
aS'consuelo_vanderbilt'
p1562
aS'captain_john_byron'
p1563
aS'humphrey_iv_of_toron'
p1564
aS'dorothy_tennant'
p1565
aS'sirabhorn_sobhon'
p1566
aS'madeleine_astor'
p1567
aS'francis_preston_blair'
p1568
aS'damrong_rajanubhab'
p1569
aS'george_v_of_hanover'
p1570
aS'jerzy_mniszech'
p1571
aS'ptolemy_ii_philadelphus'
p1572
aS'ruth_gordon'
p1573
aS'julian_the_apostate'
p1574
aS'henry_i_duke_of_guise'
p1575
aS'olga_tschechowa'
p1576
aS'james_v_of_scotland'
p1577
aS'germanicus'
p1578
aS't_b_walker'
p1579
aS'constance_of_castile_queen_of_france'
p1580
aS'vuk_brankovic_prince_of_kosovo'
p1581
aS'penda_of_mercia'
p1582
aS'joan_of_france_duchess_of_berry'
p1583
aS'paul_robeson'
p1584
aS'sigismund_i_the_old'
p1585
aS'arthur_honegger'
p1586
aS'john_of_england'
p1587
aS'princess_louise_elisabeth_of_france'
p1588
aS'mary_sidney'
p1589
aS'matthew_of_alsace'
p1590
aS'ogedei_khan'
p1591
aS'prince_paul_of_yugoslavia'
p1592
aS'christian_iv_of_denmark'
p1593
aS'paripatra'
p1594
aS'priscilla_dean'
p1595
aS'prince_edward_augustus_duke_of_kent_and_strathearn'
p1596
aS'sarah_lennox_duchess_of_richmond'
p1597
aS'harry_brodribb_irving'
p1598
aS'francoise_madeleine_dorleans'
p1599
aS'claudine_rhedey_von_kis_rhede'
p1600
aS'claude_duke_of_guise'
p1601
aS'charles_vidor'
p1602
aS'kangxi_emperor'
p1603
aS'william_de_la_pole_1st_duke_of_suffolk'
p1604
aS'ptolemy_xiii_theos_philopator'
p1605
aS'dorothy_lee'
p1606
aS'richard_wagner'
p1607
aS'john_i_duke_of_brabant'
p1608
aS'mary_sue_hubbard'
p1609
aS'wilhelmine_von_sagan'
p1610
aS'herbert_hoover'
p1611
aS'blanca_errazuriz'
p1612
aS'john_ruskin'
p1613
aS'betty_compson'
p1614
aS'murad_iii'
p1615
aS'rex_ingram_1893'
p1616
aS'jean_brooks'
p1617
aS'william_backhouse_astor_jr'
p1618
aS'judith_blunt_lytton_16th_baroness_wentworth'
p1619
aS'frederick_henry_prince_of_orange'
p1620
aS'false_dmitry_ii'
p1621
aS'ozzie_nelson'
p1622
aS'henry_fitzroy_1st_duke_of_grafton'
p1623
aS'geza_ii_of_hungary'
p1624
aS'george_plantagenet_1st_duke_of_clarence'
p1625
aS'pesach_burstein'
p1626
aS'grace_curzon_marchioness_curzon_of_kedleston'
p1627
aS'blanche_bates'
p1628
aS'prince_sigismund_of_prussia'
p1629
aS'alia_al_hussein'
p1630
aS'bridget_dowling'
p1631
aS'david_piikoi'
p1632
aS'princess_adelgunde_of_bavaria'
p1633
aS'countess_ina_von_ruppin'
p1634
aS'amadeus_iii_of_savoy'
p1635
aS'roger_vadim'
p1636
aS'jan_sterling'
p1637
aS'mehmed_iv'
p1638
aS'matthias_holy_roman_emperor'
p1639
aS'philip_i_of_castile'
p1640
aS'gunnar_myrdal'
p1641
aS'allan_jones'
p1642
aS'arsinoe_iii_of_egypt'
p1643
aS'wilhelmina_of_the_netherlands'
p1644
aS'princess_mary_of_great_britain'
p1645
aS'carol_reed'
p1646
aS'jacob_grimm'
p1647
aS'charles_duke_of_lower_lorraine'
p1648
aS'john_lennon'
p1649
aS'john_emery'
p1650
aS'james_iv_of_scotland'
p1651
aS'william_herbert_3rd_earl_of_pembroke'
p1652
aS'infanta_blanca_of_spain'
p1653
aS'ingegerd_olofsdotter'
p1654
aS'tsarevich_dimitri'
p1655
aS'peter_van_pels'
p1656
aS'thomas_seymour_1st_baron_seymour_of_sudeley'
p1657
aS'mary_anna_custis_lee'
p1658
aS'louis_i_de_bourbon_prince_de_conde'
p1659
aS'norman_frank_wilson'
p1660
aS'prince_frederick_charles_of_prussia'
p1661
aS'pulcheria'
p1662
aS'joseph_pevney'
p1663
aS'caroline_webster_schermerhorn_astor'
p1664
aS'mathilde_von_brandenburg'
p1665
aS'kay_walsh'
p1666
aS'augusta_wilhelmine_of_hesse_darmstadt'
p1667
aS'jay_gould'
p1668
aS'ed_gardner'
p1669
aS'edith_of_wessex'
p1670
aS'mary_ii_of_england'
p1671
aS'louise_elisabeth_de_bourbon_conde'
p1672
aS'charles_devreux'
p1673
aS'henry_v_count_palatine_of_the_rhine'
p1674
aS'frances_macdonald'
p1675
aS'paul_of_greece'
p1676
aS'mae_costello'
p1677
aS'albert_kamehameha'
p1678
aS'john_b_kelly_sr'
p1679
aS'diana_wynyard'
p1680
aS'prince_mikasa'
p1681
aS'anna_of_foix-candale'
p1682
aS'ferdinand_georg_of_saxe-coburg-gotha'
p1683
aS'edward_payson_terhune'
p1684
aS'infante_duarte_duke_of_guimaraes'
p1685
aS'jacques_damala'
p1686
aS'william_de_bohun_1st_earl_of_northampton'
p1687
aS'bernard_darwin'
p1688
aS'lillian_e_brown'
p1689
aS'margaret_of_artois'
p1690
aS'renee_of_france'
p1691
aS'anna_of_masovia'
p1692
aS'jason_robards'
p1693
aS'rachel'
p1694
aS'boleslaw_i_of_poland'
p1695
aS'carl_lamac'
p1696
aS'princess_marie_of_hanover'
p1697
aS'eleanor_of_alburquerque'
p1698
aS'j_paul_getty'
p1699
aS'grand_duke_konstantin_konstantinovich_of_russia'
p1700
aS'joseph_m_mccormick'
p1701
aS'maria_antonia_kohary_de_csabrag'
p1702
aS'fritz_lang'
p1703
aS'abigail_campbell_kawananakoa'
p1704
aS'franziska_kinsky_of_wchinitz_and_tettau'
p1705
aS'princess_irene_of_hesse_and_by_rhine'
p1706
aS'ptolemy_viii_physcon'
p1707
aS'peter_ii_duke_of_bourbon'
p1708
aS'catherine_of_aragon'
p1709
aS'maria_teresa_deste'
p1710
aS'spencer_trask'
p1711
aS'hendrik_of_mecklenburg-schwerin'
p1712
aS'prince_arthur_duke_of_connaught_and_strathearn'
p1713
aS'charles_viii_of_france'
p1714
aS'ermengarde_of_hesbaye'
p1715
aS'margaret_stewart'
p1716
aS'archduke_louis_of_austria'
p1717
aS'george_curzon_1st_marquess_curzon_of_kedleston'
p1718
aS'jan_miense_molenaer'
p1719
aS'keohok_lole'
p1720
aS'george_washington_parke_custis'
p1721
aS'hadrian'
p1722
aS'sean_flynn'
p1723
aS'francis_hyacinth_duke_of_savoy'
p1724
aS'ross_macdonald'
p1725
aS'theodore_ii_laskaris'
p1726
aS'marguerite_countess_of_blessington'
p1727
aS'betty_hutton'
p1728
aS'lucy_doraine'
p1729
aS'cornelis_de_graeff'
p1730
aS'louis_vi_of_france'
p1731
aS'herennius_etruscus'
p1732
aS'augusta_reuss-ebersdorf'
p1733
aS'charles_e_mullen'
p1734
aS'giulio_di_alessandro_de_medici'
p1735
aS'hussein_of_jordan'
p1736
aS'fay_wray'
p1737
aS'scipio_africanus'
p1738
aS'prince_adalbert_of_bavaria'
p1739
aS'amun-her-khepeshef'
p1740
aS'joan_the_lame'
p1741
aS'moran_family'
p1742
aS'gerald_ford'
p1743
aS'prince_august_wilhelm_of_prussia'
p1744
aS'jorge_negrete'
p1745
aS'margaret_howard_duchess_of_norfolk'
p1746
aS'james_hepburn_4th_earl_of_bothwell'
p1747
aS'bonar_colleano'
p1748
aS'marguerite_duchess_of_orleans'
p1749
aS'henry_newell_martin'
p1750
aS'jack_haley_jr'
p1751
aS'theophano'
p1752
aS'noe_ito'
p1753
aS'jeanne_ii_countess_of_burgundy'
p1754
aS'princess_helen_of_serbia'
p1755
aS'duchess_cecilie_of_mecklenburg-schwerin'
p1756
aS'constance_of_aragon'
p1757
aS'john_i_of_bohemia'
p1758
aS'sheila_darcy'
p1759
aS'margaret_of_bourbon_queen_of_navarre'
p1760
aS'samuel_johnson'
p1761
aS'henry_lee'
p1762
aS'juan_count_of_montizon'
p1763
aS'otto_frank'
p1764
aS'alfonso_de_orleans_y_borbon'
p1765
aS'oveta_culp_hobby'
p1766
aS'antoine_duke_of_montpensier'
p1767
aS'louis_duke_of_nemours'
p1768
aS'caroline_matilda_of_wales'
p1769
aS'nell_gwyn'
p1770
aS'infante_fernando_duke_of_viseu'
p1771
aS'grand_duke_alexei_mikhailovich_of_russia'
p1772
aS'gytha_thorkelsdottir'
p1773
aS'rachel_jackson'
p1774
aS'grand_duchess_elizabeth_fyodorovna'
p1775
aS'otto_of_savoy'
p1776
aS'basil_ii'
p1777
aS'maria_josepha_of_saxony'
p1778
aS'princess_cecilia_of_sweden_1807'
p1779
aS'vladimir_vysotsky'
p1780
aS'bona_of_savoy'
p1781
aS'alfred_hitchcock'
p1782
aS'sirdar_ikbal_ali_shah'
p1783
aS'ekaterina_geladze'
p1784
aS'michael_chekhov'
p1785
aS'louis_x_of_france'
p1786
aS'stephen_ii_count_of_blois'
p1787
aS'louis_ii_cardinal_of_guise'
p1788
aS'prince_pedro_de_alcantara_of_orleans_braganza'
p1789
aS'mustafa_kemal_ataturks_personal_life'
p1790
aS'charlemagne'
p1791
aS'sancha_of_leon'
p1792
aS'wladyslaw_iii_of_poland'
p1793
aS'yanina_zhejmo'
p1794
aS'nicholas_hughes'
p1795
aS'sarah_knox_taylor'
p1796
aS'charles_ii_of_england'
p1797
aS'ernest_augustus_i_of_hanover'
p1798
aS'henry_viii_of_england'
p1799
aS'richard_farina'
p1800
aS'john_george_iii_elector_of_saxony'
p1801
aS'rosalia_de_castro'
p1802
aS'peter_iii_of_portugal'
p1803
aS'charles_frederick_duke_of_holstein_gottorp'
p1804
aS'philip_v_of_spain'
p1805
aS'prince_ludwig_of_hesse_and_by_rhine'
p1806
aS'anicia_juliana'
p1807
aS'ptolemy_of_mauretania'
p1808
aS'maria_josepha_of_bavaria'
p1809
aS'fritz_feld'
p1810
aS'archduke_leopold_salvator_prince_of_tuscany'
p1811
aS'eleonore-magdalena_of_neuburg'
p1812
aS'william_johnston_tupper'
p1813
aS'benazir_bhutto'
p1814
aS'hosokawa_tadaoki'
p1815
aS'casimir_iv_jagiellon'
p1816
aS'florence_vidor'
p1817
aS'martin_i_of_sicily'
p1818
aS'anna_orzelska'
p1819
aS'beatrice_of_provence'
p1820
aS'danny_kaye'
p1821
aS'robert_iii_duke_of_normandy'
p1822
aS'henry_count_of_portugal'
p1823
aS'prince_peter_of_greece_and_denmark'
p1824
aS'dmitri_donskoi'
p1825
aS'vanessa_bell'
p1826
aS'harriet_cavendish_leveson_gower'
p1827
aS'ernest_elector_of_saxony'
p1828
aS'david_kawananakoa'
p1829
aS'abraham'
p1830
aS'marcus_vipsanius_agrippa'
p1831
aS'bianca_maria_visconti'
p1832
aS'empress_xiaoshu_rui'
p1833
aS'judith_of_babenberg'
p1834
aS'andrew_w_clark'
p1835
aS'john_campbell_9th_duke_of_argyll'
p1836
aS'michael_de_la_pole_1st_earl_of_suffolk'
p1837
aS'diego_prince_of_asturias'
p1838
aS'pattie_menzies'
p1839
aS'john_ii_of_aragon'
p1840
aS'bettye_ackerman'
p1841
aS'luther_cressman'
p1842
aS'victor_amadeus_i_duke_of_savoy'
p1843
aS'thomas_willing'
p1844
aS'richard_burton'
p1845
aS'marie_de_champagne'
p1846
aS'carlos_duke_of_madrid'
p1847
aS'theresa_countess_of_portugal'
p1848
aS'herbert_von_bismarck'
p1849
aS'abhakara_kiartiwongse'
p1850
aS'lady_elizabeth_percy'
p1851
aS'george_brent'
p1852
aS'louis_viii_of_france'
p1853
aS'maria_of_antioch'
p1854
aS'charlotta_kaletta'
p1855
aS'raymond_iv_of_toulouse'
p1856
aS'rudolph_i_of_bohemia'
p1857
aS'peter_iii_of_russia'
p1858
aS'hedwig_von_trapp'
p1859
aS'violant_of_aragon'
p1860
aS'philip_of_swabia'
p1861
aS'maria_adelaide_of_austria'
p1862
aS'elizabeth_stuart_countess_of_lennox'
p1863
aS'helene_chadwick'
p1864
aS'mimi_smith'
p1865
aS'jenny_von_westphalen'
p1866
aS'henry_x_duke_of_bavaria'
p1867
aS'ayse_hafsa_sultan'
p1868
aS'eva_mary_coulson'
p1869
aS'john_graves_simcoe'
p1870
aS'jerzy_radziwill'
p1871
aS'charles_xi_of_sweden'
p1872
aS'kosem'
p1873
aS'hojo_masako'
p1874
aS'princess_elizabeth_of_sweden'
p1875
aS'letizia_ramolino'
p1876
aS'henry_howard_earl_of_surrey'
p1877
aS'michal_kazimierz_radziwill'
p1878
aS'lady_isabella_fitzroy'
p1879
aS'natalia_pavlovna_paley'
p1880
aS'marshall_neilan'
p1881
aS'napoleon_iii_of_france'
p1882
aS'baudouin_of_belgium'
p1883
aS'mary_everest_boole'
p1884
aS'grand_duchess_catherine_mikhailovna_of_russia'
p1885
aS'rudolf_klein_rogge'
p1886
aS'boguslaw_radziwill'
p1887
aS'benjamin_harrison'
p1888
aS'don_siegel'
p1889
aS'fredegund'
p1890
aS'george_mackinnon_wrong'
p1891
aS'sir_anthony_browne'
p1892
aS'jessica_tandy'
p1893
aS'gary_crosby'
p1894
aS'john_shakespeare'
p1895
aS'george_washington_custis_lee'
p1896
aS'vanessa_redgrave'
p1897
aS'wan_rong'
p1898
aS'manlia_scantilla'
p1899
aS'chokkanatha_nayak'
p1900
aS'judith_of_schweinfurt'
p1901
aS'henry_iv_of_castile'
p1902
aS'chakrabongse_bhuvanath'
p1903
aS'lady_caroline_lamb'
p1904
aS'yang_guifei'
p1905
aS'lucius_verus'
p1906
aS'eleanor_de_braose'
p1907
aS'julia_von_hauke'
p1908
aS'julia_ward_howe'
p1909
aS'archduchess_marie_caroline_of_austria'
p1910
aS'princess_alice_countess_of_athlone'
p1911
aS'lady_cynthia_mosley'
p1912
aS'salonina_matidia'
p1913
aS'richensa_of_lotharingia'
p1914
aS'sterling_hayden'
p1915
aS'princess_clementine_of_belgium'
p1916
aS'henry_iii_of_france'
p1917
aS'sweyn_i_of_denmark'
p1918
aS'anna_gonzaga'
p1919
aS'oskar_schindler'
p1920
aS'minamoto_no_sanetomo'
p1921
aS'artie_shaw'
p1922
aS'johanna_of_austria'
p1923
aS'carl_ferdinand_cori'
p1924
aS'henry_brandon_2nd_duke_of_suffolk'
p1925
aS'lucia_elizabeth_vestris'
p1926
aS'agustin_lara'
p1927
aS'piam'
p1928
aS'zulfikar_ali_bhutto'
p1929
aS'robert_iv_of_dreux'
p1930
aS'princess_maria_antonietta_of_naples_and_sicily'
p1931
aS'maria_leszczynska'
p1932
aS'dawn_evelyn_paris'
p1933
aS'prince_henry_of_prussia'
p1934
aS'giovanna_of_italy'
p1935
aS'empress_xiaoxian_chun'
p1936
aS'edith_of_scotland'
p1937
aS'sandra_dee'
p1938
aS'chico_marx'
p1939
aS'charles_v_of_france'
p1940
aS'urraca_fernandez'
p1941
aS'constance_of_penafiel'
p1942
aS'anne_of_gloucester'
p1943
aS'kenneth_harlan'
p1944
aS'charles_arbuthnot'
p1945
aS'ed_begley'
p1946
aS'princess_sophie_of_greece_and_denmark'
p1947
aS'otto_ii_wittelsbach_duke_of_bavaria'
p1948
aS'catherine_howard'
p1949
aS'henry_howard_22nd_earl_of_arundel'
p1950
aS'dubrawka'
p1951
aS'bertha_of_kent'
p1952
aS'isaac_disraeli'
p1953
aS'william_wallace_lincoln'
p1954
aS'empress_dowager_cixi'
p1955
aS'elena_of_bulgaria'
p1956
aS'irene_lascarina'
p1957
aS'prince_roman_petrovich_of_russia'
p1958
aS'arsinoe_ii_of_egypt'
p1959
aS'louise_of_great_britain'
p1960
aS'william_hamilton_1730'
p1961
aS'rudolf_cardinal_von_habsburg_lothringen'
p1962
aS'margaret_leighton'
p1963
aS'marguerite_of_anjou_and_maine'
p1964
aS'roy_redgrave'
p1965
aS'maria_theresa_of_spain'
p1966
aS'dorothy_nyswander'
p1967
aS'eve_curie'
p1968
aS'leopold_iii_of_belgium'
p1969
aS'margaret_sullavan'
p1970
aS'vratislaus_ii_of_bohemia'
p1971
aS'charlotte_of_spain'
p1972
aS'anne_herbert_countess_of_pembroke'
p1973
aS'hazel_scott'
p1974
aS'sonnie_hale'
p1975
aS'caroline_townshend_1st_baroness_greenwich'
p1976
aS'grand_duke_paul_alexandrovich_of_russia'
p1977
aS'athelstan_of_england'
p1978
aS'william_king_noel_1st_earl_of_lovelace'
p1979
aS'frances_walsingham'
p1980
aS'louis_xiii_of_france'
p1981
aS'linda_gallegos'
p1982
aS'eleonora_di_toledo'
p1983
aS'sofia_albertina_princess_of_sweden'
p1984
aS'erekle_ii'
p1985
aS'william_i_of_wurttemberg'
p1986
aS'ingeborg_of_denmark_queen_consort_of_france'
p1987
aS'george_of_saxony'
p1988
aS'rutherford_b_hayes'
p1989
aS'robert_ii_of_dreux'
p1990
aS'ludu_u_hla'
p1991
aS'prince_toneri_of_japan'
p1992
aS'samuel_wesley'
p1993
aS'william_s_burroughs_jr'
p1994
aS'yolande_of_jerusalem'
p1995
aS'robert_ii_duke_of_normandy'
p1996
aS'moss_hart'
p1997
aS'kurt_weill'
p1998
aS'anna_petrovna_of_russia'
p1999
aS'isabella_ii_of_spain'
p2000
aS'beatrice_de_montfort_countess_of_montfort_lamaury'
p2001
aS'alexandra_of_greece_and_denmark'
p2002
aS'berenice_i_of_egypt'
p2003
aS'louisa_adams'
p2004
aS'crown_prince_rudolf_of_austria'
p2005
aS'margaret_duchess_of_austria'
p2006
aS'blanche_of_england'
p2007
aS'millard_fillmore'
p2008
aS'juana_calderon_tapia'
p2009
aS'maria_of_spain'
p2010
aS'infante_joao_duke_of_beja'
p2011
aS'henry_carey_1st_baron_hunsdon'
p2012
aS'afonso_iv_of_portugal'
p2013
aS'mahendra_of_nepal'
p2014
aS'empress_xiaokang'
p2015
aS'ronald_reagan'
p2016
aS'prince_george_of_greece_and_denmark'
p2017
aS'maximilian_ii_holy_roman_emperor'
p2018
aS'alfonso_xi_of_castile'
p2019
aS'arabella_churchill_1949'
p2020
aS'sophia_of_halshany'
p2021
aS'catherine_ii_of_russia'
p2022
aS'ion_antonescu'
p2023
aS'aurelia_cotta'
p2024
aS'ines_mendoza'
p2025
aS'leopold_ii_grand_duke_of_tuscany'
p2026
aS'princess_louise_of_denmark_and_norway'
p2027
aS'henry_hastings_5th_earl_of_huntingdon'
p2028
aS'maximilian_i_of_bavaria'
p2029
aS'alexander_ii_of_scotland'
p2030
aS'robert_devereux_2nd_earl_of_essex'
p2031
aS'empress_xiaogong_ren'
p2032
aS'noble_consort_wan'
p2033
aS'clementine_churchill_baroness_spencer_churchill'
p2034
aS'princess_elizabeth_albertine_of_saxe-hildburghausen'
p2035
aS'louise_marie_therese_of_france'
p2036
aS'geoffrey_v_count_of_anjou'
p2037
aS'laurence_harvey'
p2038
aS'louis_duke_of_burgundy'
p2039
aS'justine_johnstone'
p2040
aS'michael_de_la_pole_3rd_earl_of_suffolk'
p2041
aS'peter_scott'
p2042
aS'charlotte_grand_duchess_of_luxembourg'
p2043
aS'ahmed_ii'
p2044
aS'abigail_campbell'
p2045
aS'teresa_kunegunda_sobieska'
p2046
aS'frederick_iii_german_emperor'
p2047
aS'max_schmeling'
p2048
aS'rattanbai_petit'
p2049
aS'helmuth_james_graf_von_moltke'
p2050
aS'princess_cecilie_of_greece_and_denmark'
p2051
aS'empress_beatrice_of_hohenstaufen'
p2052
aS'januaria_princess_imperial_of_brazil'
p2053
aS'virginia_bruce'
p2054
aS'helen_thompson_sunday'
p2055
aS'astrid_of_sweden'
p2056
aS'chuck_connors'
p2057
aS'leonard_woolf'
p2058
aS'rembrandt'
p2059
aS'natalie_victurnienne_marquise_de_rouge'
p2060
aS'stefan_batory'
p2061
aS'mihrimar'
p2062
aS'zack_james_bellar'
p2063
aS'peter_lawford'
p2064
aS'john_ii_komnenos'
p2065
aS'tony_smith_1912'
p2066
aS'prince_christoph_of_hesse-cassel'
p2067
aS'stephen_iii_prince_of_serbia'
p2068
aS'rushdy_abaza'
p2069
aS'harry_davenport'
p2070
aS'mai_zetterling'
p2071
aS'anne_of_cleves'
p2072
aS'samuel_phillips_lee'
p2073
aS'khufu'
p2074
aS'william_b_bankhead'
p2075
aS'robert_hudson_walker'
p2076
aS'anne_of_kiev'
p2077
aS'samuel_wesley_1662'
p2078
aS'simeon_saxe_coburg_gotha'
p2079
aS'gene_kelly'
p2080
aS'reginald_i_count_of_burgundy'
p2081
aS'edward_ii_of_england'
p2082
aS'zog_of_albania'
p2083
aS'elena_glinskaya'
p2084
aS'archduke_karl_salvator_prince_of_tuscany'
p2085
aS'cacilia_weber'
p2086
aS'henry_the_lion'
p2087
aS'edward_albert'
p2088
aS'katarzyna_ostrogska_1560'
p2089
aS'geraldine_apponyi_de_nagy-apponyi'
p2090
aS'lottie_pickford'
p2091
aS'caroline_benn'
p2092
aS'anna_katarzyna_sanguszko'
p2093
aS'elisabeth_of_bosnia'
p2094
aS'eleonora_de_medici'
p2095
aS'shahnawaz_bhutto'
p2096
aS'catherine_pavlovna_of_russia'
p2097
aS'preston_foster'
p2098
aS'wenceslaus_iii_of_bohemia'
p2099
aS'william_henry_fitzhugh_lee'
p2100
aS'romanos_ii'
p2101
aS'emma_of_waldeck_and_pyrmont'
p2102
aS'bobby_darin'
p2103
aS'ernie_kovacs'
p2104
aS'grand_duchess_alexandra_nikolaevna_of_russia'
p2105
aS'robert_iii_of_scotland'
p2106
aS'gorm_the_old'
p2107
aS'maria_antonescu'
p2108
aS'yaroslav_i_the_wise'
p2109
aS'valentinian_iii'
p2110
aS'andrei_kostrichkin'
p2111
aS'george_iv_of_the_united_kingdom'
p2112
aS'otto_william_duke_of_burgundy'
p2113
aS'enno_ii_of_east_frisia'
p2114
aS'joan_crawford'
p2115
aS'carolyn_jones'
p2116
aS'ulrika_eleonora_of_sweden'
p2117
aS'glenda_farrell'
p2118
aS'suzanne_kaaren'
p2119
aS'louise_juliana_of_nassau'
p2120
aS'maria_beatrice_of_savoy'
p2121
aS'enno_iii_count_of_ostfriesland'
p2122
aS'arthur_i_duke_of_brittany'
p2123
aS'archduchess_margarethe_klementine_of_austria'
p2124
aS'william_cavendish'
p2125
aS'louise_elisabeth_of_orleans'
p2126
aS'lady_caroline_lennox'
p2127
aS'jack_haley'
p2128
aS'charles_of_hesse'
p2129
aS'theobald_iii_of_champagne'
p2130
aS'adelheid_of_savoy'
p2131
aS'mary_ure'
p2132
aS'stefano_casiraghi'
p2133
aS'l_ron_hubbard'
p2134
aS'sarah_fuller_flower_adams'
p2135
aS'frederick_vii_of_denmark'
p2136
aS'wilhelm_duke_of_nassau'
p2137
aS'hermes_rodrigues_da_fonseca'
p2138
aS'john_adams_kuakini'
p2139
aS'beatrice_webb'
p2140
aS'james_cruze'
p2141
aS'simone_signoret'
p2142
aS'charles_iii_of_spain'
p2143
aS'ercole_deste_i'
p2144
aS'prince_arthur_of_connaught'
p2145
aS'clotaire_ii'
p2146
aS'john_f_kennedy'
p2147
aS'mary_princess_royal_and_princess_of_orange'
p2148
aS'roxana'
p2149
aS'albert_lieven'
p2150
aS'elisabeth_of_parma'
p2151
aS'yongzheng_emperor'
p2152
aS'dorothy_ayer_gardner_ford'
p2153
aS'victoria_of_baden'
p2154
aS'horemheb'
p2155
aS'maria_isabel_of_portugal'
p2156
aS'mecklenburg-schwerin'
p2157
aS'marie_anne_de_france'
p2158
aS'louis_joseph_duc_de_vendome'
p2159
aS'li_yuqin'
p2160
aS'archduke_franz_karl_of_austria'
p2161
aS'bretislaus_i_of_bohemia'
p2162
aS'jacquetta_of_luxembourg'
p2163
aS'ralph_pulitzer'
p2164
aS'robert_z_leonard'
p2165
aS'benjamin_disraeli_1st_earl_of_beaconsfield'
p2166
aS'marie_curie'
p2167
aS'ferdinand_duke_of_genoa'
p2168
aS'false_dmitriy_i'
p2169
aS'tiberius_nero'
p2170
aS'fanny_holland'
p2171
aS'franz_xaver_wolfgang_mozart'
p2172
aS'william_herbert_1st_earl_of_pembroke'
p2173
aS'john_ii_of_france'
p2174
aS'maria_winteler_einstein'
p2175
aS'hosokawa_gracia'
p2176
aS'antoine_nompar_de_caumont'
p2177
aS'william_cavendish_6th_duke_of_devonshire'
p2178
aS'alethea_howard_countess_of_arundel'
p2179
aS'mor_jokai'
p2180
aS'johanne_luise_heiberg'
p2181
aS'mieszko_i_of_poland'
p2182
aS'claudia_antonia'
p2183
aS'grand_duchess_elena_vladimirovna_of_russia'
p2184
aS'bertha_krupp'
p2185
aS'john_pegram'
p2186
aS'carlos_antonio_lopez'
p2187
aS'khamphoui'
p2188
aS'ann_sheridan'
p2189
aS'princess_elizabeth_of_saxony'
p2190
aS'anahareo'
p2191
aS'yury_dmitrievich'
p2192
aS'john_dudley_1st_duke_of_northumberland'
p2193
aS'matilda_of_boulogne'
p2194
aS'caesonia'
p2195
aS'hilda_toledano'
p2196
aS'george_p_putnam'
p2197
aS'william_ii_prince_of_orange'
p2198
aS'harpo_marx'
p2199
aS'julie_clary'
p2200
aS'mr_s_hiritzo'
p2201
aS'oswiu_of_northumbria'
p2202
aS'maria_victoria_al_pozzo_della_cisterna'
p2203
aS'mae_busch'
p2204
aS'philip_herbert_4th_earl_of_pembroke'
p2205
aS'louis_mountbatten_1st_marquess_of_milford_haven'
p2206
aS'nusrat_bhutto'
p2207
aS'charles_xii_of_sweden'
p2208
aS'henry_the_young_king'
p2209
aS'john_i_albert_of_poland'
p2210
aS'gul_hamid'
p2211
aS'alfonso_vii_of_leon'
p2212
aS'wanda_hendrix'
p2213
aS'neferneferuaten'
p2214
aS'joseph_ferdinand_of_bavaria_prince_of_asturias'
p2215
aS'princess_louise_margaret_duchess_of_connaught'
p2216
aS'princess_irene_of_the_netherlands'
p2217
aS'victor_emmanuel_ii_of_italy'
p2218
aS'princess_maria_carolina_of_bourbon_two_sicilies'
p2219
aS'henry_wilcoxon'
p2220
aS'maria_antonietta_of_spain'
p2221
aS'selim_ii'
p2222
aS'robert_a_workman'
p2223
aS'william_holden'
p2224
aS'maria_louisa_of_spain_duchess_of_lucca'
p2225
aS'luisa_of_medina-sidonia'
p2226
aS'louise_marie_adelaide_de_bourbon_penthievre'
p2227
aS'gary_merrill'
p2228
aS'philip_iii_of_spain'
p2229
aS'marin_sais'
p2230
aS'charlotte_of_bourbon'
p2231
aS'geraldine_mcgee_rosenthal'
p2232
aS'buck_barrow'
p2233
aS'charles_martel_of_anjou'
p2234
aS'thutmose_i'
p2235
aS'grand_duke_alexei_alexandrovich_of_russia'
p2236
aS'umberto_i_of_italy'
p2237
aS'margaret_mead'
p2238
aS'william_lewis_herndon'
p2239
aS'john_adams'
p2240
aS'sylvia_bataille'
p2241
aS'millicent_fawcett'
p2242
aS'denis_of_portugal'
p2243
aS'emperor_meiji'
p2244
aS'maximilian_joseph_duke_in_bavaria'
p2245
aS'philipe_de_croy_duke_of_aerschot'
p2246
aS'oneca_daughter_of_sancho_i_of_pamplona'
p2247
aS'noble_consort_ying'
p2248
aS'allan_dwan'
p2249
aS'ferdinand_iii_of_castile'
p2250
aS'adela_capet'
p2251
aS'prince_alfred_of_great_britain'
p2252
aS'edward_lasker'
p2253
aS'diana_churchill'
p2254
aS'winston_churchill'
p2255
aS'princess_marie_of_orleans'
p2256
aS'adele_of_france'
p2257
aS'walter_gropius'
p2258
aS'magdalena_of_valois'
p2259
aS'thomas_howard_3rd_duke_of_norfolk'
p2260
aS'boris_iii_of_bulgaria'
p2261
aS'anne_arundell'
p2262
aS'princess_viktoria_luise_of_prussia'
p2263
aS'milica_of_montenegro'
p2264
aS'alexander_jagiellon'
p2265
aS'sophia_alekseyevna'
p2266
aS'mickey_deans'
p2267
aS'theodora_of_wallachia'
p2268
aS'ludmilla_of_bohemia'
p2269
aS'frederick_howard_taylor'
p2270
aS'isabella_clark'
p2271
aS'charles_v_holy_roman_emperor'
p2272
aS'adelaide_of_saxe-meiningen'
p2273
aS'hirohito'
p2274
aS'rex_harrison'
p2275
aS'elizabeth_i_of_england'
p2276
aS'billy_rose'
p2277
aS'harry_martinson'
p2278
aS'titus_van_rijn'
p2279
aS'ramiro_ii_of_aragon'
p2280
aS'mary_harrison_mckee'
p2281
aS'twosret'
p2282
aS'mary_talbot_countess_of_shrewsbury'
p2283
aS'bernice_pauahi_bishop'
p2284
aS'marilyn_miller'
p2285
aS'thomas_bourchier'
p2286
aS'caroline_of_brunswick'
p2287
aS'john_v_duke_of_brittany'
p2288
aS'constance_duchess_of_brittany'
p2289
aS'rainier_iii_prince_of_monaco'
p2290
aS'augustus'
p2291
aS'lester_del_rey'
p2292
aS'carlo_buonaparte'
p2293
aS'julia_gardiner_tyler'
p2294
aS'catherine_jagiellon'
p2295
aS'gilbert_de_clare_5th_earl_of_hertford'
p2296
aS'prince_oskar_of_prussia'
p2297
aS'vittorio_emanuele_count_of_turin'
p2298
aS'margaret_of_bavaria'
p2299
aS'ptolemy_v_epiphanes'
p2300
aS'cleopatra_iii_of_egypt'
p2301
aS'louis_philippe_i_duke_of_orleans'
p2302
aS'alexander_macleay'
p2303
aS'william_oshea'
p2304
aS'maria_of_montferrat'
p2305
aS'maria_anna_mozart'
p2306
aS'ruth_roland'
p2307
aS'infante_luis_duke_of_beja'
p2308
aS'mataio_kekuanaoa'
p2309
aS'ava_gardner'
p2310
aS'thea_von_harbou'
p2311
aS'gautama_buddha'
p2312
aS'archer_m_huntington'
p2313
aS'eleanor_boardman'
p2314
aS'empress_xiaosheng_xian'
p2315
aS'elizabeth_cady_stanton'
p2316
aS'queen_emma_of_hawaii'
p2317
aS'albert_v_duke_of_bavaria'
p2318
aS'catherine_of_austria'
p2319
aS'alexander_iv_of_macedon'
p2320
aS'june_carter_cash'
p2321
aS'goharshad'
p2322
aS'eleanor_de_roucy_de_roye'
p2323
aS'louis_vii_of_france'
p2324
aS'rainis'
p2325
aS'marie_lloyd'
p2326
aS'anna_lee'
p2327
aS'eleanor_of_england'
p2328
aS'anna_pavlovna_of_russia'
p2329
aS'judith_premyslid'
p2330
aS'princess_marie_bonaparte'
p2331
aS'leopold_ii_of_belgium'
p2332
aS'sancho_ii_of_castile'
p2333
aS'bertrada_of_laon'
p2334
aS'sarah_hall_boardman'
p2335
aS'joan_of_acre'
p2336
aS'ilona_massey'
p2337
aS'maria_of_habsburg_archduchess_of_austria'
p2338
aS'harry_hay'
p2339
aS'lew_cody'
p2340
aS'archduke_anton_prince_of_tuscany'
p2341
aS'virginia_cherrill'
p2342
aS'william_iii_of_england'
p2343
aS'princess_clotilde_of_saxe_coburg_and_gotha'
p2344
aS'rupert_hart-davis'
p2345
aS'frederick_william_i_of_prussia'
p2346
aS'wen_xiu'
p2347
aS'luther_adler'
p2348
aS'philippa_of_england'
p2349
aS'anne_princess_royal_and_princess_of_orange'
p2350
aS'vasili_iii_of_russia'
p2351
aS'ferdinand_iii_holy_roman_emperor'
p2352
aS'louis_ii_of_naples'
p2353
aS'marianne_hold'
p2354
aS'ibrahim_i'
p2355
aS'xiaozhuangwen_grand_empress_dowager'
p2356
aS'soraya_esfandiary'
p2357
aS'nero'
p2358
aS'maria_antonia_of_austria'
p2359
aS'ay'
p2360
aS'alice_de_la_pole'
p2361
aS'frederick_w_seward'
p2362
aS'maria_isabella_of_spain'
p2363
aS'tan_yuling'
p2364
aS'betsy_blair'
p2365
aS'martin_van_buren'
p2366
aS'seti_ii'
p2367
aS'elisabeth_of_france'
p2368
aS'conrad_iv_of_germany'
p2369
aS'paula_ben-gurion'
p2370
aS'shunzhi_emperor'
p2371
aS'francis_clifford_4th_earl_of_cumberland'
p2372
aS'elena_of_montenegro'
p2373
aS'matthew_perry_1794'
p2374
aS'johan_ludvig_heiberg'
p2375
aS'henry_ii_duke_of_brabant'
p2376
aS'eustace_iii_of_boulogne'
p2377
aS'grand_duke_cyril_vladimirovich_of_russia'
p2378
aS'lyle_talbot'
p2379
aS'alice_spencer'
p2380
aS'sidney_franklin_1893'
p2381
aS'hugh_de_stafford_2nd_earl_of_stafford'
p2382
aS'elisabeth_of_austria'
p2383
aS'george_ii_of_greece'
p2384
aS'winston_churchill_1940'
p2385
aS'martine_carol'
p2386
aS'landgravine_elisabeth_amalie_of_hesse_darmstadt'
p2387
aS'louise_of_mecklenburg_gustrow'
p2388
aS'anna_mcneill_whistler'
p2389
aS'louise_of_savoy'
p2390
aS'minta_durfee'
p2391
aS'louis_i_of_naples'
p2392
aS'haji_mohammad_suharto'
p2393
aS'william_alexander_1824'
p2394
aS'maria_amalia_of_austria'
p2395
aS'william_boyd_1895'
p2396
aS'dante_gabriel_rossetti'
p2397
aS'matilda_of_flanders'
p2398
aS'anna_of_savoy'
p2399
aS'alois_hitler'
p2400
aS'inge_morath'
p2401
aS'vajiravudh'
p2402
aS'aelia_paetina'
p2403
aS'hieronim_wincenty_radziwill'
p2404
aS'breaker_morant'
p2405
aS'violant_of_hungary'
p2406
aS'aiswarya'
p2407
aS'aelia_flaccilla'
p2408
aS'kermit_roosevelt'
p2409
aS'grand_duke_vladimir_alexandrovich_of_russia'
p2410
aS'louise_mountbatten'
p2411
aS'ferdinand_of_bavaria'
p2412
aS'susan_shaw'
p2413
aS'genghis_khan'
p2414
aS'judith_leyster'
p2415
aS'frances_tupper'
p2416
aS'anna_of_oldenburg'
p2417
aS'yakov_dzhugashvili'
p2418
aS'anna_of_finland'
p2419
aS'joan_woodbury'
p2420
aS'dorothy_walker_bush'
p2421
aS'leopold_i_holy_roman_emperor'
p2422
aS'sylvia_brett'
p2423
aS'stefan_uro_ii_milutin_of_serbia'
p2424
aS'constantius_ii'
p2425
aS'ali'
p2426
aS'albert_payson_terhune'
p2427
aS'adelaide_of_anjou'
p2428
aS'yixin_prince_gong'
p2429
aS'prince_knud_of_denmark'
p2430
aS'charles_anthoni_johnson_brooke'
p2431
aS'paula_hitler'
p2432
aS'boots_mallory'
p2433
aS'lilli_palmer'
p2434
aS'louis_philip_dorleans'
p2435
aS'prince_ferdinand_of_prussia'
p2436
aS'boris_sagal'
p2437
aS'eleanor_of_aquitaine'
p2438
aS'zwentibold'
p2439
aS'elisabeth_ludovika_of_bavaria'
p2440
aS'heather_angel'
p2441
aS'emma_of_normandy'
p2442
aS'george_william_duke_of_brunswick_luneburg'
p2443
aS'carlos_thompson'
p2444
aS'william_carey_1490'
p2445
aS'marjorie_merriweather_post'
p2446
aS'charibert_i'
p2447
aS'richard_de_clare_2nd_earl_of_pembroke'
p2448
aS'louis_vi_elector_palatine'
p2449
aS'princess_augusta_sophia_of_the_united_kingdom'
p2450
aS'empress_xiaoquan_cheng'
p2451
aS'wyatt_earp'
p2452
aS'anna_of_tyrol'
p2453
aS'william_bingham'
p2454
aS'hal_roach'
p2455
aS'empress_xiaode'
p2456
aS'anthony_duke_of_brabant'
p2457
aS'louis_ii_de_bourbon_prince_de_conde'
p2458
aS'jean_marie_roland_vicomte_de_la_platiere'
p2459
aS'princess_leopoldina_of_brazil'
p2460
aS'henry_grey_1st_duke_of_suffolk'
p2461
aS'augustus_john_foster'
p2462
aS'sophie_of_sweden'
p2463
aS'countess_georgina_von_wilczek'
p2464
aS'frederick_i_of_austria'
p2465
aS'hudson_taylor'
p2466
aS'selim_iii'
p2467
aS'old_man_clanton'
p2468
aS'helge_ingstad'
p2469
aS'elena_pavlovna_of_wurttemberg'
p2470
aS'archduke_ferdinand_karl_of_austria'
p2471
aS'edward_iv_of_england'
p2472
aS'berenice_iii_of_egypt'
p2473
aS'melisende_of_jerusalem'
p2474
aS'maria_sofia_of_the_palatinate'
p2475
aS'gustav_iii_of_sweden'
p2476
aS'judith_shakespeare'
p2477
aS'hugo_ball'
p2478
aS'margery_wentworth'
p2479
aS'alice_joyce'
p2480
aS'vissarion_jughashvili'
p2481
aS'savang_vatthana'
p2482
aS'robert_mackay'
p2483
aS'victoria_woodhull'
p2484
aS'james_i_of_scotland'
p2485
aS'aubrey_de_vere_20th_earl_of_oxford'
p2486
aS'maria_josefa_de_la_soledad_9th_duchess_of_osuna'
p2487
aS'flavia_maximiana_theodora'
p2488
aS'marie_therese_de_bourbon_conde'
p2489
aS'ernest_augustus_duke_of_york_and_albany'
p2490
aS'alfonso_xii_of_spain'
p2491
aS'princess_mary_duchess_of_gloucester_and_edinburgh'
p2492
aS'john_holland_1st_duke_of_exeter'
p2493
aS'assia_wevill'
p2494
aS'josephine_shaw_lowell'
p2495
aS'helena_of_constantinople'
p2496
aS'dana_reeve'
p2497
aS'marguerite_snow'
p2498
aS'joan_of_habsburg'
p2499
aS'mary_curzon_baroness_curzon_of_kedleston'
p2500
aS'adam_clayton_powell_jr'
p2501
aS'violante_of_bavaria'
p2502
aS'isabella_jagiello'
p2503
aS'kathleen_scott'
p2504
aS'harry_james'
p2505
aS'smenkhkare'
p2506
aS'ian_keith'
p2507
aS'zara_bate'
p2508
aS'napoleon_charles_bonaparte'
p2509
aS'tey'
p2510
aS'charles_of_viana'
p2511
aS'tiberius_gemellus'
p2512
aS'amedeo_3rd_duke_of_aosta'
p2513
aS'thomas_h_harris'
p2514
aS'sukumalmarsri'
p2515
aS'ann_sothern'
p2516
aS'anthony_pelissier'
p2517
aS'crown_prince_wilhelm_of_germany'
p2518
aS'christian_x_of_denmark'
p2519
aS'norma_talmadge'
p2520
aS'anne_duchess_of_montpensier'
p2521
aS'constantine_dragas'
p2522
aS'charles_fitzcharles_1st_earl_of_plymouth'
p2523
aS'adolphus_cambridge_1st_marquess_of_cambridge'
p2524
aS'charles_of_valois'
p2525
aS'joan_i_of_navarre'
p2526
aS'maria_alexandrovna_of_russia'
p2527
aS'maria_of_palatinate_simmern'
p2528
aS'philip_iv_of_spain'
p2529
aS'basil_rathbone'
p2530
aS'pinklao'
p2531
aS'louis_william_margrave_of_baden_baden'
p2532
aS'talitha_getty'
p2533
aS'dayan_khan'
p2534
aS'odoardo_cardinal_farnese'
p2535
aS'lester_cuneo'
p2536
aS'margaret_iii_countess_of_flanders'
p2537
aS'grand_duchess_xenia_alexandrovna_of_russia'
p2538
aS'dorothea_of_saxe-lauenburg'
p2539
aS'anita_garibaldi'
p2540
aS'henry_i_of_france'
p2541
aS'ferdinand_i_of_the_two_sicilies'
p2542
aS'grand_duchess_elizabeth_mikhailovna'
p2543
aS'infante_augusto_duke_of_coimbra'
p2544
aS'suzanne_curchod'
p2545
aS'eleanor_of_portugal_empress'
p2546
aS'john_mills'
p2547
aS'alexandra_pavlovna_of_russia'
p2548
aS'margaret_carnegie_miller'
p2549
aS'lollia_paulina'
p2550
aS'charles_ferdinand_duke_of_opole'
p2551
aS'raymond_ii_of_tripoli'
p2552
aS'anna_de_medici'
p2553
aS'joan_bennett'
p2554
aS'andreas_papandreou'
p2555
aS'radama_ii_of_madagascar'
p2556
aS'victoria_adelaide_of_schleswig-holstein'
p2557
aS'magda_goebbels'
p2558
aS'eirene_kantakouzene'
p2559
aS'isabelle_of_france_queen_of_navarre'
p2560
aS'jacqueline_kennedy_onassis'
p2561
aS'charles_lennox_2nd_duke_of_richmond'
p2562
aS'domitilla_the_younger'
p2563
aS'margaret_of_scotland_1261'
p2564
aS'elizabeth_augusta_of_sulzbach'
p2565
aS'empress_xiao_jing'
p2566
aS'ernest_louis_grand_duke_of_hesse'
p2567
aS'ivan_iv_of_russia'
p2568
aS'isabella_of_castile'
p2569
aS'charlotte_christine_of_brunswick_luneburg'
p2570
aS'luis_filipe_duke_of_braganza'
p2571
aS'lupe_velez'
p2572
aS'robert_alan_aurthur'
p2573
aS'princess_alice_duchess_of_gloucester'
p2574
aS'ealhswith'
p2575
aS'helene_frank'
p2576
aS'nora_stanton_blatch_barney'
p2577
aS'marie_of_brabant'
p2578
aS'ercole_iii_deste_duke_of_modena'
p2579
aS'matilda_daughter_of_otto_ii'
p2580
aS'kaahumanu'
p2581
aS'varina_howell'
p2582
aS'marie_of_burgundy_duchess_of_cleves'
p2583
aS'bing_crosby'
p2584
aS'archduke_rainer_of_austria'
p2585
aS'isabella_stewart_princess_of_scotland'
p2586
aS'john_ii_of_trebizond'
p2587
aS'peter_paul_rubens'
p2588
aS'george_papandreou'
p2589
aS'frederick_william_of_hesse'
p2590
aS'princess_margaret_of_prussia'
p2591
aS'husayn_ibn_ali'
p2592
aS'marjorie_bruce'
p2593
aS'ethel_clayton'
p2594
aS'rudolph_valentino'
p2595
aS'princess_irina_of_russia'
p2596
aS'krzysztof_mikolaj_the_lightning_radziwill'
p2597
aS'charles_iv_holy_roman_emperor'
p2598
aS'william_daubigny_1st_earl_of_arundel'
p2599
aS'jacques_necker'
p2600
aS'charles_i_of_england'
p2601
aS'miklos_horthy'
p2602
aS'adnan_adivar'
p2603
aS'gian_gastone_de_medici_grand_duke_of_tuscany'
p2604
aS'louis_rudolph_duke_of_brunswick_luneburg'
p2605
aS'ladislaus_i_of_hungary'
p2606
aS'stephen_william_clark'
p2607
aS'henry_ii_duke_of_austria'
p2608
aS'maria_josepha_of_portugal'
p2609
aS'charles_i_of_wurttemberg'
p2610
aS'rangsit_prince_of_chainat'
p2611
aS'bess_houdini'
p2612
aS'ann_willing_bingham'
p2613
aS'louis_alexandre_de_bourbon_prince_de_lamballe'
p2614
aS'archduke_ernest_of_austria'
p2615
aS'henry_stanton'
p2616
aS'casimir_i_of_poland'
p2617
aS'eleanor_of_castile'
p2618
aS'anthony_havelock-allan'
p2619
aS'prince_gustav_of_denmark'
p2620
aS'charles_rennie_mackintosh'
p2621
aS'kitiyakara_voralaksana'
p2622
aS'sancho_iii_of_castile'
p2623
aS'frederika_louisa_of_hesse-darmstadt'
p2624
aS'charles_the_simple'
p2625
aS'frederick_hereditary_prince_of_denmark_and_norway'
p2626
aS'harry_houdini'
p2627
aS'tiberius'
p2628
aS'maureen_osullivan'
p2629
aS'kalanipauahi'
p2630
aS'henry_frederick_prince_of_wales'
p2631
aS'stokely_carmichael'
p2632
aS'william_henry_vanderbilt'
p2633
aS'infanta_maria_francisca_countess_of_molina'
p2634
aS'suzanne_pleshette'
p2635
aS'maria_amalia_of_saxony'
p2636
aS'eleanor_wilson_mcadoo'
p2637
aS'guntram'
p2638
aS'igor_grand_prince_of_kiev'
p2639
aS'bermudo_ii_of_leon'
p2640
aS'alexandre_vicomte_de_beauharnais'
p2641
aS'thutmose_iii'
p2642
aS'raymond_iii_of_tripoli'
p2643
aS'james_waldegrave_2nd_earl_waldegrave'
p2644
aS'wladyslaw_iv_vasa'
p2645
aS'will_durant'
p2646
aS'madame_de_pompadour'
p2647
aS'cedric_gibbons'
p2648
aS'william_iv_duke_of_bavaria'
p2649
aS'theodosius_ii'
p2650
aS'siti_hartinah'
p2651
aS'leon_mba'
p2652
aS'philip_iii_of_navarre'
p2653
aS'madeleine_de_valois'
p2654
aS'glenn_ford'
p2655
aS'jerome_bonaparte'
p2656
aS'marie_of_anjou'
p2657
aS'edith_tolkien'
p2658
aS'sofia_of_bavaria'
p2659
aS'stanislaw_radziwill'
p2660
aS'mel_ferrer'
p2661
aS'ines_suarez'
p2662
aS'gerberga_of_saxony'
p2663
aS'ferdinand_vii_of_spain'
p2664
aS'thomas_rolfe'
p2665
aS'karl_ludwig_of_baden'
p2666
aS'christian-jaque'
p2667
aS'philip_iii_of_france'
p2668
aS'prince_willem_of_the_netherlands'
p2669
aS'benedita_dowager_princess_of_brazil'
p2670
aS'paul_lafargue'
p2671
aS'abigail_adams'
p2672
aS'christina_of_sweden'
p2673
aS'emily_fitzgerald_duchess_of_leinster'
p2674
aS'mihrisah_sultan'
p2675
aS'henry_stuart_lord_darnley'
p2676
aS'christian_vii_of_denmark'
p2677
aS'edward_spencer_8th_earl_spencer'
p2678
aS'irene_hervey'
p2679
aS'emperor_temmu'
p2680
aS'carlos_i_of_portugal'
p2681
aS'barbara_oneil'
p2682
aS'joan_of_france'
p2683
aS'orson_welles'
p2684
aS'leopold_duke_of_lorraine'
p2685
aS'felix_yusupov'
p2686
aS'john_iii_of_portugal'
p2687
aS'anna_nitschmann'
p2688
aS'charlie_soong'
p2689
aS'archduchess_maria_christina_duchess_of_teschen'
p2690
aS'philip_viii_duc_dorleans'
p2691
aS'alice_of_the_united_kingdom'
p2692
aS'gunnora_duchess_of_normandy'
p2693
aS'hazel_brooks'
p2694
aS'ranavalona_ii_of_madagascar'
p2695
aS'venetia_stanley_1887'
p2696
aS'isabella_brant'
p2697
aS'mutnedjmet'
p2698
aS'margarita_of_austria'
p2699
aS'dorothy_sebastian'
p2700
aS'helena_roerich'
p2701
aS'hedy_lamarr'
p2702
aS'johann_wolfgang_goethe'
p2703
aS'william_ii_of_england'
p2704
aS'louise_marie_adelaide_eugenie_dorleans'
p2705
aS'mutnofret'
p2706
aS'john_cromwell'
p2707
aS'gustav_i_of_sweden'
p2708
aS'anthony_franciosa'
p2709
aS'george_sanders'
p2710
aS'john_of_brienne'
p2711
aS'peter_sellers'
p2712
aS'empress_xiaozhao'
p2713
aS'ferdinand_vi_of_spain'
p2714
aS'mary_virginia_terhune'
p2715
aS'prince_nicholas_of_romania'
p2716
aS'amarindra'
p2717
aS'princess_yolanda_margherita_of_savoy'
p2718
aS'adrienne_ames'
p2719
aS'archduke_ferdinand_of_austria-este'
p2720
aS'gustaf_v_of_sweden'
p2721
aS'charles_ferdinand_duc_de_berry'
p2722
aS'erich_maria_remarque'
p2723
aS'william_asher'
p2724
aS'clemens_august_of_bavaria'
p2725
aS'maria_teresa_of_the_two_sicilies'
p2726
aS'beatrice_deste'
p2727
aS'anne_stanhope'
p2728
aS'lana_turner'
p2729
aS'william_cavendish_4th_duke_of_devonshire'
p2730
aS'charles_spencer_churchill_9th_duke_of_marlborough'
p2731
aS'bertrade_de_montfort'
p2732
aS'wallis_the_duchess_of_windsor'
p2733
aS'mariana_victoria_of_spain'
p2734
aS'isabel_marshal'
p2735
aS'isaac'
p2736
aS'josephine_de_beauharnais'
p2737
aS'garcia_iv_of_pamplona'
p2738
aS'henrietta_anne_stuart'
p2739
aS'george_xii_of_georgia'
p2740
aS'judy-lynn_del_rey'
p2741
aS'muna_lee_1895'
p2742
aS'james_e_ferguson'
p2743
aS'bathilde_dorleans'
p2744
aS'chester_a_arthur'
p2745
aS'princess_t_chi'
p2746
aS'cecily_neville'
p2747
aS'cosima_wagner'
p2748
aS'dwight_d_eisenhower'
p2749
aS'oscar_ii_of_sweden'
p2750
aS'john_campbell_3rd_earl_of_breadalbane_and_holland'
p2751
aS'charles_blount_1st_earl_of_devonshire'
p2752
aS'ilka_chase'
p2753
aS'decius'
p2754
aS'duke_peter_of_oldenburg'
p2755
aS'beatriz_of_portugal'
p2756
aS'robert_taft'
p2757
aS'elizabeth_montagu'
p2758
aS'junia_claudilla'
p2759
aS'bao_dai'
p2760
aS'ferdinand_i_of_bulgaria'
p2761
aS'william_waldorf_astor_3rd_viscount_astor'
p2762
aS'evelyn_keyes'
p2763
aS'joana_crown_princess_of_portugal'
p2764
aS'alexander_prince_of_orange'
p2765
aS'louis_count_de_chinchon'
p2766
aS'arvid_harnack'
p2767
aS'ercole_ii_deste'
p2768
aS'louis_of_spain'
p2769
aS'alexander_darcy'
p2770
aS'louis_iv_landgrave_of_hesse_marburg'
p2771
aS'duncan_sandys'
p2772
aS'manuel_i_komnenos'
p2773
aS'albert_spencer_7th_earl_spencer'
p2774
aS'margaret_oneill_eaton'
p2775
aS'archduchess_maria_theresa_of_austria_este'
p2776
aS'lucille_ball'
p2777
aS'hannah_chaplin'
p2778
aS'maximilian_iii_archduke_of_austria'
p2779
aS'mary_robinson_baroness_grantham'
p2780
aS'alexander_helios'
p2781
aS'maurice_jarre'
p2782
aS'louis_xvi_of_france'
p2783
aS'charles_i_of_sicily'
p2784
aS'herbert_macnair'
p2785
aS'christine_terhune_herrick'
p2786
aS'princess_victoria_melita_of_edinburgh_and_saxe-coburg-gotha'
p2787
aS'elizabeth_farren'
p2788
aS'charles_brandon_3rd_duke_of_suffolk'
p2789
aS'godwin_earl_of_wessex'
p2790
aS'charles_x_gustav_of_sweden'
p2791
aS'etta_place'
p2792
aS'vespasian'
p2793
aS'james_i_of_aragon'
p2794
aS'louis_ferdinand_prince_of_prussia'
p2795
aS'cliff_edwards'
p2796
aS'james_dougherty'
p2797
aS'sara_roosevelt'
p2798
aS'mary_c_seward'
p2799
aS'cleopatra_iv_of_egypt'
p2800
aS'xianfeng_emperor'
p2801
aS'michael_zaslow'
p2802
aS'henry_of_portugal'
p2803
aS'michael_of_trebizond'
p2804
aS'william_mcmahon'
p2805
aS'sigismund_iii_vasa'
p2806
aS'paul_scarron'
p2807
aS'hannah_slade_currier'
p2808
aS'edwy_of_england'
p2809
aS'ayn_rand'
p2810
aS'katarzyna_barbara_radziwill'
p2811
aS'luisa_of_the_two_sicilies'
p2812
aS'charles_xiii_of_sweden'
p2813
aS'marie_jeanne_baptiste_de_savoie_nemours'
p2814
aS'jacques_feyder'
p2815
aS'eliza_mccardle_johnson'
p2816
aS'horatia_nelson'
p2817
aS'anne_frank'
p2818
aS'vipsania_agrippina'
p2819
aS'maria_arpad_of_hungary'
p2820
aS'carole_lombard'
p2821
aS'bachir_gemayel'
p2822
aS'constance_bennett'
p2823
aS'margaret_de_bohun_2nd_countess_of_devon'
p2824
aS'elizabeth_of_york'
p2825
aS'lurleen_wallace'
p2826
aS'robert_shaw_1927'
p2827
aS'ethel_lilian_voynich'
p2828
aS'valentinian_i'
p2829
aS'betty_blythe'
p2830
aS'ferdinand_iv_of_castile'
p2831
aS'victoria_of_valois'
p2832
aS'margaret_douglas'
p2833
aS'prince_leopold_duke_of_albany'
p2834
aS'allison_defeo'
p2835
aS'leonor_of_portugal_queen_of_aragon'
p2836
aS'mary_bilson_legge_1st_baroness_stawell'
p2837
aS'ernst_i_duke_of_saxe_coburg_and_gotha'
p2838
aS'ferdinand_ii_of_the_two_sicilies'
p2839
aS'francis_i_of_france'
p2840
aS'elizabeth_de_burgh'
p2841
aS'elinor_fair'
p2842
aS'alma_mahler'
p2843
aS'bertha_of_holland'
p2844
aS'william_shakespeare'
p2845
aS'tom_poston'
p2846
aS'william_marshal_1st_earl_of_pembroke'
p2847
aS'george_herbert_11th_earl_of_pembroke'
p2848
aS'archduchess_maria_isabella_princess_of_tuscany'
p2849
aS'ukhaatu_khan'
p2850
aS'princess_luisa_carlotta_of_the_two_sicilies'
p2851
aS'pompeia_plotina'
p2852
aS'william_ix_of_aquitaine'
p2853
aS'olimpia_mancini'
p2854
aS'maria_theresia_of_austria-este'
p2855
aS'stanislav_rostotsky'
p2856
aS'porcia_catonis'
p2857
aS'david_ben-gurion'
p2858
aS'faustina_the_elder'
p2859
aS'ahmed_i'
p2860
aS'prince_karl_theodor_of_bavaria'
p2861
aS'sigebert_i'
p2862
aS'prescott_bush'
p2863
aS'alexander_i_of_greece'
p2864
aS'lysimachus'
p2865
aS'georg_grand_duke_of_mecklenburg_strelitz'
p2866
aS'evelyn_ankers'
p2867
aS'lynn_bari'
p2868
aS'charles_the_fat'
p2869
aS'frederick_william_ii_of_prussia'
p2870
aS'jack_hoxie'
p2871
aS'judith_of_hungary'
p2872
aS'infanta_isabel_of_portugal'
p2873
aS'yolanda_king'
p2874
aS'blanche_of_brittany'
p2875
aS'dolores_costello'
p2876
aS'julie_london'
p2877
aS'jacques_balsan'
p2878
aS'sammy_davis_jr'
p2879
aS'abigail_may_alcott_nieriker'
p2880
aS'beatrice_duchess_of_savoy'
p2881
aS'edward_the_elder'
p2882
aS'francis_lederer'
p2883
aS'charles_seymour_6th_duke_of_somerset'
p2884
aS'philip_v_of_france'
p2885
aS'katharina_von_bora'
p2886
aS'amalric_i_of_jerusalem'
p2887
aS'signe_hasso'
p2888
aS'zipporah'
p2889
aS'louis_i_of_hungary'
p2890
aS'harold_stirling_vanderbilt'
p2891
aS'robert_lowell'
p2892
aS'rita_hayworth'
p2893
aS'napoleon_ii_of_france'
p2894
aS'abraham_hoagland'
p2895
aS'anne_morrow_lindbergh'
p2896
aS'jodhabai'
p2897
aS'james_madison_sr'
p2898
aS'emily_petty_fitzmaurice_marchioness_of_lansdowne'
p2899
aS'viveca_lindfors'
p2900
aS'louis_v_of_france'
p2901
aS'ramon_berenguer_iv_count_of_provence'
p2902
aS'mao_fumei'
p2903
aS'prince_heinrich_of_prussia'
p2904
aS'duchess_sophie_charlotte_augustine_in_bavaria'
p2905
aS'carmen_polo'
p2906
aS'francis_ii_duke_of_brittany'
p2907
aS'adoniram_judson'
p2908
aS'lorenzo_ii_duke_of_urbino'
p2909
aS'anne_isabella_byron_baroness_byron'
p2910
aS'lucia_wijbrants'
p2911
aS'mary_howitt'
p2912
aS'ramon_magsaysay'
p2913
aS'katherine_de_stafford'
p2914
aS'catherine_bauer_wurster'
p2915
aS'ellen_louise_wilson'
p2916
aS'john_vi_duke_of_brittany'
p2917
aS'laura_ingalls_wilder'
p2918
aS'wladyslaw_ii_the_exile'
p2919
aS'henry_luce'
p2920
aS'charles_longuet'
p2921
aS'jemima_yorke_2nd_marchioness_grey'
p2922
aS'johann_peter_gustav_lejeune_dirichlet'
p2923
aS'maria_josepha_of_austria'
p2924
aS'ronald_colman'
p2925
aS'audrey_meadows'
p2926
aS'frederick_prince_of_wales'
p2927
aS'brian_kelly_hell'
p2928
aS'joshua_logan'
p2929
aS'constance_of_sicily'
p2930
aS'piroska_of_hungary'
p2931
aS'empress_xiaocheng'
p2932
aS'harald_i_of_norway'
p2933
aS'lord_randolph_churchill'
p2934
aS'david_o_selznick'
p2935
aS'canute_vi_of_denmark'
p2936
aS'alfred_the_great'
p2937
aS'juliana_maria_of_brunswick_wolfenbuttel'
p2938
aS'princess_helene_of_orleans'
p2939
aS'george_montgomery'
p2940
aS'george_frederic_watts'
p2941
aS'archduke_otto_franz_of_austria'
p2942
aS'marcus_whitman'
p2943
aS'philip_iii_duke_of_burgundy'
p2944
aS'judith_daughter_of_welf'
p2945
aS'ossip_gabrilowitsch'
p2946
aS'richard_i_of_england'
p2947
aS'frederick_viii_of_denmark'
p2948
aS'josephine_alicia_saenz'
p2949
aS'john_montagu_douglas_scott_7th_duke_of_buccleuch'
p2950
aS'bess_of_hardwick'
p2951
aS'kamehameha_iii'
p2952
aS'archduke_franz_ferdinand_of_austria'
p2953
aS'sam_jaffe_1891'
p2954
aS'francisco_de_paula_duke_of_cadiz'
p2955
aS'henry_fitzroy_1st_duke_of_richmond_and_somerset'
p2956
aS'augustus_william_james_clifford'
p2957
aS'augustus_de_morgan'
p2958
aS'charles_calvert_3rd_baron_baltimore'
p2959
aS'mary_i_of_scotland'
p2960
aS'solange_gemayel'
p2961
aS'marie_de_rabutin_chantal_marquise_de_sevigne'
p2962
aS'nicky_arnstein'
p2963
aS'tyrone_power_sr'
p2964
aS'countess_palatine_caroline_of_zweibrucken'
p2965
aS'dolores_del_rio'
p2966
aS'blanca_of_navarre'
p2967
aS'ptolemy_x_alexander_i'
p2968
aS'louis_joseph_duke_of_brittany'
p2969
aS'bruce_cabot'
p2970
aS'sophia_amelia_of_brunswick_luneburg'
p2971
aS'henry_symes_lehr'
p2972
aS'bibb_graves'
p2973
aS'maria_felix'
p2974
aS'agilulf'
p2975
aS'cornelia_africana'
p2976
aS'george_burns'
p2977
aS'mercedes_princess_of_asturias'
p2978
aS'frederick_ii_landgrave_of_hesse'
p2979
aS'baldwin_ii_of_jerusalem'
p2980
aS'leo_iv_the_khazar'
p2981
aS'ecgfrith_of_northumbria'
p2982
aS'leonora_of_naples'
p2983
aS'prince_baudouin_of_belgium'
p2984
aS'bela_iii_of_hungary'
p2985
aS'mary_hallock_foote'
p2986
aS'ptolemy_iv_philopator'
p2987
aS'isabella_neville'
p2988
aS'claudius'
p2989
aS'elem_klimov'
p2990
aS'meritaten'
p2991
aS'cornelius_vanderbilt_whitney'
p2992
aS'katarzyna_potocka'
p2993
aS'charles_iii_duke_of_parma'
p2994
aS'louis_auguste_prince_of_dombes'
p2995
aS'miriam_cooper'
p2996
aS'otto_i_duke_of_bavaria'
p2997
aS'hasan_ibn_ali'
p2998
aS'miriam_a_ferguson'
p2999
aS'mrs_a_helfferich'
p3000
aS'louis_o_kelso'
p3001
aS'david_rose'
p3002
aS'charles_duc_dorleans'
p3003
aS'jun_tsuji'
p3004
aS'gustav_krupp_von_bohlen_und_halbach'
p3005
aS'roger_needham'
p3006
aS'ferdinand_ii_of_leon'
p3007
aS'kamehameha_iv'
p3008
aS'anne_hathaway_1556'
p3009
aS'caroline_of_baden'
p3010
aS'maria_manuela_of_portugal'
p3011
aS'malcolm_x'
p3012
aS'edmund_crouchback_1st_earl_of_lancaster'
p3013
aS'princess_augusta_of_prussia'
p3014
aS'nadezhda_konstantinovna_krupskaya'
p3015
aS'e_h_harriman'
p3016
aS'george_calvert_1st_baron_baltimore'
p3017
aS'eleanor_of_navarre'
p3018
aS'prince_maurice_of_battenberg'
p3019
aS'jackson_pollock'
p3020
aS'isabella_of_castile_duchess_of_york'
p3021
aS'maria_fyodorovna_of_russia'
p3022
aS'tilly_losch'
p3023
aS'vere_beauclerk_1st_baron_vere_of_hanworth'
p3024
aS'florenz_ziegfeld'
p3025
aS'margaret_of_burgundy_queen_of_navarre'
p3026
aS'ptolemy_vi_philometor'
p3027
aS'elisabeth_of_tirol'
p3028
aS'prince_waldemar_of_prussia'
p3029
aS'maria_fortunata_deste'
p3030
aS'alfonso_of_castile_prince_of_asturias'
p3031
aS'mae_west'
p3032
aS'friederike_dorothea_of_brandenburg_schwedt'
p3033
aS'norton_simon'
p3034
aS'george_victor_prince_of_waldeck_and_pyrmont'
p3035
aS'russ_meyer'
p3036
aS'elizabeth_hervey'
p3037
aS'kamamalu'
p3038
aS'krzysztof_radziwill'
p3039
aS'christina_of_saxony'
p3040
aS'maud_of_savoy'
p3041
aS'blanche_oelrichs'
p3042
aS'yun_yat'
p3043
aS'john_jacob_astor_iv'
p3044
aS'robert_f_wagner'
p3045
aS'harry_solter'
p3046
aS'james_joseph_brown'
p3047
aS'yolanda_of_aragon'
p3048
aS'marie_de_medici'
p3049
aS'ptolemy_xii_auletes'
p3050
aS'king_vidor'
p3051
aS'basarab_i_of_wallachia'
p3052
aS'berenguela_of_castile'
p3053
aS'henry_i_of_england'
p3054
aS'prince_octavius_of_great_britain'
p3055
aS'june_lang'
p3056
aS'princess_eugenie_of_sweden'
p3057
aS'anna_of_east_anglia'
p3058
aS'jean-louis_barrault'
p3059
aS'patsy_ruth_miller'
p3060
aS'dagobert_i'
p3061
aS'mr_w_grimm'
p3062
aS'franz_frederick_anton_duke_of_saxe_coburg_saalfeld'
p3063
aS'nadezhda_rimskaya_korsakova'
p3064
aS'arnulf_of_carinthia'
p3065
aS'charles_the_bald'
p3066
aS'george_washington_whistler'
p3067
aS'philip_ii_of_spain'
p3068
aS'francoise_daubigne_marquise_de_maintenon'
p3069
aS'fritz_pfeffer'
p3070
aS'catherine_carey'
p3071
aS'charles_hibbert_tupper'
p3072
aS'madeleine_carroll'
p3073
aS'margaret_taylor'
p3074
aS'prince_gustaf_duke_of_uppland'
p3075
aS'vajirunhis'
p3076
aS'sophia_magdalen_of_brandenburg-kulmbach'
p3077
aS'julia_the_elder'
p3078
aS'louise_of_saxe-gotha-altenburg'
p3079
aS'richard_of_conisburgh_3rd_earl_of_cambridge'
p3080
aS'el_bieta_szydlowiecka'
p3081
aS'lady_elizabeth_stanley'
p3082
aS'theodore_komisarjevsky'
p3083
aS'maria_anna_of_habsburg'
p3084
aS'handan_sultan'
p3085
aS'natalia_princess_brassova'
p3086
aS'jean_arp'
p3087
aS'selim_i'
p3088
aS'edna_wallace_hopper'
p3089
aS'isabel_of_spain_princess_of_asturias'
p3090
aS'frederick_william_iv_of_prussia'
p3091
aS'john_forrest'
p3092
aS'margaret_moffette_lea'
p3093
aS'philipp_wilhelm_elector_palatine'
p3094
aS'mrs_mary_hiritzo'
p3095
aS'emperor_taisho'
p3096
aS'latife_usakligil'
p3097
aS'shah_rukh'
p3098
aS'edward_william_godwin'
p3099
aS'francesco_i_sforza'
p3100
aS'mariana_of_austria'
p3101
aS'anne_catherine_of_brandenburg'
p3102
aS'richard_bennett'
p3103
aS'maria_jane_dyer'
p3104
aS'edward_smith_stanley_13th_earl_of_derby'
p3105
aS'henry_sidney'
p3106
aS'manuel_murguia'
p3107
aS'count_palatine_frederick_michael_of_zweibrucken'
p3108
aS'millicent_hearst'
p3109
aS'anna_of_habsburg'
p3110
aS'john_f_fitzgerald'
p3111
aS'sonia_greene'
p3112
aS'jeanne_hebuterne'
p3113
aS'henry_v_of_england'
p3114
aS'gerald_rudolff_ford'
p3115
aS'bretislaus_ii_of_bohemia'
p3116
aS'elizabeth_howard_duchess_of_norfolk'
p3117
aS'margaret_kemble_gage'
p3118
aS'princess_sophia_dorothea_of_prussia'
p3119
aS'grand_duke_nicholas_nicolaievich_of_russia'
p3120
aS'eddie_albert'
p3121
aS'edmund_of_woodstock_1st_earl_of_kent'
p3122
aS'beatrix_of_the_netherlands'
p3123
aS'b_carroll_reece'
p3124
aS'ferdinand_ii_of_aragon'
p3125
aS'rosemary_clooney'
p3126
aS'elizabeth_of_denmark_norway_and_sweden'
p3127
aS'germaine_of_foix'
p3128
aS'cyril_hume'
p3129
aS'alessandro_de_medici_duke_of_florence'
p3130
aS'louis_the_child'
p3131
aS'borte'
p3132
aS'bonabes_marquis_de_rouge'
p3133
aS'maria_ii_of_portugal'
p3134
aS'marie_of_saxe-altenburg'
p3135
aS'michael_curtiz'
p3136
aS'samuel_ward_jr'
p3137
aS'ida_g_stephens'
p3138
aS'doris_blackburn'
p3139
aS'robert_baden_powell_1st_baron_baden_powell'
p3140
aS'william_s_sadler'
p3141
aS'gustav_count_of_vasaborg'
p3142
aS'buddha_loetla_nabhalai'
p3143
aS'manuel_ii_palaiologos'
p3144
aS'anna_of_austria'
p3145
aS'kamose'
p3146
aS'anna_deste'
p3147
aS'joshua_lederberg'
p3148
aS'john_stuart_1st_marquess_of_bute'
p3149
aS'george_fitzroy_4th_duke_of_grafton'
p3150
aS'infante_fernando_duke_of_guarda_and_trancoso'
p3151
aS'alexander_mountbatten_1st_marquess_of_carisbrooke'
p3152
aS'maria_pia_of_italy'
p3153
aS'dorothea_of_brandenburg'
p3154
aS'verina'
p3155
aS'john_de_saulles'
p3156
aS'leonor_telles_de_menezes'
p3157
aS'pierre_curie'
p3158
aS'stefan_dragutin_of_serbia'
p3159
aS'abby_may'
p3160
aS'nicholas_i_of_russia'
p3161
aS'maximilian_sforza'
p3162
aS'archduchess_maria_theresia_of_austria'
p3163
aS'john_tyler'
p3164
aS'william_cavendish_7th_duke_of_devonshire'
p3165
aS'aspazija'
p3166
aS'sophia_of_lithuania'
p3167
aS'archduke_maximilian_franz_of_austria'
p3168
aS'mustafa_kemal_ataturk'
p3169
aS'marie_louise_princesse_de_lamballe'
p3170
aS'isabel_princess_imperial_of_brazil'
p3171
aS'theuderic_iii'
p3172
aS'adelaide_del_vasto'
p3173
aS'halide_edip_adivar'
p3174
aS'peter_van_eyck'
p3175
aS'samuel_cutler_ward'
p3176
aS'algirdas'
p3177
aS'fatima_zahra'
p3178
aS'amalia_of_solms-braunfels'
p3179
aS'shirley_graham_du_bois'
p3180
aS'bamie_roosevelt'
p3181
aS'william_cavendish_bentinck_7th_duke_of_portland'
p3182
aS'yugala_dighambara'
p3183
aS'harold_harefoot'
p3184
aS'robert_baker_aitken'
p3185
aS'aleksandar_obrenovic'
p3186
aS'sean_macbride'
p3187
aS'lala_mara'
p3188
aS'peter_ii_of_aragon'
p3189
aS'katherine_corri_harris'
p3190
aS'margaret_of_york'
p3191
aS'prince_mahisorn'
p3192
aS'narcissa_whitman'
p3193
aS'marianne_hoppe'
p3194
aS'grand_duchess_maria_pavlovna_of_russia_1890'
p3195
aS'marina_mniszech'
p3196
aS'maria_anna_of_bavaria_1574'
p3197
aS'gene_markey'
p3198
aS'christian_vi_of_denmark'
p3199
aS'betty_hawley_kelso'
p3200
aS'william_bateson'
p3201
aS'barbara_of_portugal'
p3202
aS'louise-marie_of_france'
p3203
aS'archduke_carl_ludwig_of_austria'
p3204
aS'jose_prince_of_brazil'
p3205
aS'martha_washington'
p3206
aS'miep_gies'
p3207
aS'alma_gluck'
p3208
aS'liza_minnelli'
p3209
aS'userkaf'
p3210
aS'leopold_ii_holy_roman_emperor'
p3211
aS'princess_sigrid_of_sweden'
p3212
aS'barbara_hutton'
p3213
aS'elizabeth_maitland_duchess_of_lauderdale'
p3214
aS'jogaila'
p3215
aS'ivan_sratsimir_of_bulgaria'
p3216
aS'pedro_ii_of_brazil'
p3217
aS'caroline_of_ansbach'
p3218
aS'elisabeth_charlotte_of_orleans'
p3219
aS'elliott_roosevelt_i'
p3220
aS'amelie_matisse'
p3221
aS'thutmose_ii'
p3222
aS'thutmose_iv'
p3223
aS'maria_teresa_rafaela_of_spain'
p3224
aS'william_v_duke_of_bavaria'
p3225
aS'anna_maria_mozart'
p3226
aS'cleopatra_i_of_egypt'
p3227
aS'cornel_wilde'
p3228
aS'albert_ii_duke_of_austria'
p3229
aS'john_c_calhoun'
p3230
aS'jinfei'
p3231
aS'talal_of_jordan'
p3232
aS'ann_todd'
p3233
aS'grand_duke_nicholas_mikhailovich_of_russia'
p3234
aS'hugh_the_younger_despenser'
p3235
aS'odette_joyeux'
p3236
aS'isabella_of_aragon'
p3237
aS'henry_cardinal_beaufort'
p3238
aS'richard_1st_earl_of_cornwall'
p3239
aS'feodor_iii_of_russia'
p3240
aS'princess_alexandra_of_edinburgh_and_saxe-coburg-gotha'
p3241
aS'colonel_james_blood'
p3242
aS'gary_morton'
p3243
aS'laura_marx'
p3244
aS'eleonore_of_blois'
p3245
aS'frederica_of_baden'
p3246
aS'henry_e_huntington'
p3247
aS'benita_hume'
p3248
aS'albert_parsons'
p3249
aS'empress_xiaomu'
p3250
aS'vita_sackville-west'
p3251
aS'marguerite_nichols'
p3252
aS'charlie_chaplin'
p3253
aS'francis_ii_of_the_two_sicilies'
p3254
aS'maureen_reagan'
p3255
aS'mamie_eisenhower'
p3256
aS'antiochus_ix_cyzicenus'
p3257
aS'ferdinand_philippe_marie_duc_dalencon'
p3258
aS'philip_yorke_2nd_earl_of_hardwicke'
p3259
aS'alan_ladd'
p3260
aS'georges_bataille'
p3261
aS'thibaw_min'
p3262
aS'berenice_ii'
p3263
aS'lachlan_macquarie'
p3264
aS'william_ii_german_emperor'
p3265
aS'taddea_visconti'
p3266
aS'alois_hitler_jr'
p3267
aS'margaret_leijonhufvud'
p3268
aS'theobald_iii_count_of_blois'
p3269
aS'ann_little'
p3270
aS'adelaide_of_aquitaine'
p3271
aS'juliane_of_saxe-coburg-saalfeld'
p3272
aS'charles_of_lorraine_duke_of_mayenne'
p3273
aS'mathilde_kschessinska'
p3274
aS'princess_ileana_of_romania'
p3275
aS'boleslaw_ii_of_poland'
p3276
aS'infante_manuel_count_of_ourem'
p3277
aS'florence_lawrence'
p3278
aS'princess_olga_of_greece_and_denmark'
p3279
aS'clemence_of_anjou'
p3280
aS'eirik_ii_of_norway'
p3281
aS'elisabeth_of_bohemia'
p3282
aS'lev_kamenev'
p3283
aS'marguerite_de_valois'
p3284
aS'friedrich_zelnik'
p3285
aS'frances_stevenson'
p3286
aS'francois_de_bourbon_prince_de_conti'
p3287
aS'iziaslav_i_of_kiev'
p3288
aS'timur'
p3289
aS'john_clifford_7th_baron_de_clifford'
p3290
aS'edward_hamersley'
p3291
aS'merneptah'
p3292
aS'francoise_athenais_marquise_de_montespan'
p3293
aS'hume_cronyn'
p3294
aS'yaropolk_i_of_kiev'
p3295
aS'mahmud_ii'
p3296
aS'george_hearst'
p3297
aS'lady_eleanor_brandon'
p3298
aS'archduchess_maria_leopoldine_of_austria_este'
p3299
aS'louis_grand_dauphin'
p3300
aS'vittorio_gassman'
p3301
aS'baldwin_iii_of_jerusalem'
p3302
aS'princess_louisa_anne_of_wales'
p3303
aS'beatrice_of_castile'
p3304
aS'prince_mircea_of_romania'
p3305
aS'prince_leopold_of_bavaria'
p3306
aS'carl_eduard_duke_of_saxe_coburg_and_gotha'
p3307
aS'spencer_cavendish_8th_duke_of_devonshire'
p3308
aS'suzanne_despres'
p3309
aS'john_manners_7th_duke_of_rutland'
p3310
aS'charles_vyner_brooke'
p3311
aS'auguste_marie_johanna_of_baden_baden'
p3312
aS'olav_v_of_norway'
p3313
aS'leonora_speyer'
p3314
aS'anthony_ward_clark'
p3315
aS'princess_nadejda_of_bulgaria'
p3316
aS'lazar_brankovic_prince_of_rascia'
p3317
aS'georgiana_cavendish_howard'
p3318
aS'albert_of_saxe-coburg_and_gotha'
p3319
aS'henry_herbert_2nd_earl_of_pembroke'
p3320
aS'louisa_may_alcott'
p3321
aS'elizabeth_blair_lee'
p3322
aS'charles_ingalls'
p3323
aS'anna_of_brandenburg'
p3324
aS'sarah_bush_lincoln'
p3325
aS'h_h_kung'
p3326
aS'otto_iv_holy_roman_emperor'
p3327
aS'mary_of_guelders'
p3328
aS'frederick_iii_of_denmark'
p3329
aS'marie_von_bruhl'
p3330
aS'harald_ii_of_norway'
p3331
aS'juan_ramon_jimenez'
p3332
aS'anthony_eden'
p3333
aS'eleonore_princess_reuss_kostritz'
p3334
aS'eleonore_desmier_dolbreuse'
p3335
aS'barton_yarborough'
p3336
aS'archibald_douglas_6th_earl_of_angus'
p3337
aS'charles_louis_frederick_duke_of_mecklenburg_mirow'
p3338
aS'blanche_of_castile'
p3339
aS'amelia_of_brazil'
p3340
aS'joe_dimaggio'
p3341
aS'edmund_fitzalan_9th_earl_of_arundel'
p3342
aS'eva_macmurrough'
p3343
aS'franklin_pierce'
p3344
aS'robert_six'
p3345
aS'percy_bysshe_shelley'
p3346
aS'valdemar_ii_of_denmark'
p3347
aS'george_iii_of_the_united_kingdom'
p3348
aS'ricky_nelson'
p3349
aS'elena_of_greece_and_denmark'
p3350
aS'william_adelin'
p3351
aS'jackie_coogan'
p3352
aS'andrew_robinson_stoney'
p3353
aS'charles_august_lindbergh'
p3354
aS'minamoto_no_yoritomo'
p3355
aS'leleiohoku'
p3356
aS'mildred_harris'
p3357
aS'henrietta_churchill_2nd_duchess_of_marlborough'
p3358
aS'antoine_of_navarre'
p3359
aS'john_barrymore'
p3360
aS'infante_joao_of_portugal'
p3361
aS'john_spencer_1st_earl_spencer'
p3362
aS'maria_luisa_of_savoy'
p3363
aS'helena_draga'
p3364
aS'howard_duff'
p3365
aS'dinah_shore'
p3366
aS'elizabeth_plantagenet'
p3367
aS'isabel_de_clare_4th_countess_of_pembroke'
p3368
aS'helen_hayes'
p3369
aS'vong_savang'
p3370
aS'luis_munoz_marin'
p3371
aS'jose_collins'
p3372
aS'ranuccio_i_farnese_duke_of_parma'
p3373
aS'infanta_francisca_josefa_of_portugal'
p3374
aS'blair_lee_i'
p3375
aS'sarah_franklin_bache'
p3376
aS'kaahumanu_iv'
p3377
aS'archduke_karl_ferdinand_of_austria'
p3378
aS'elizabeth_woodville'
p3379
aS'chiang_wei-kuo'
p3380
aS'stanislaw_przybyszewski'
p3381
aS'isabel_of_coimbra'
p3382
aS'bob_crane'
p3383
aS'theodosius_i'
p3384
aS'tad_lincoln'
p3385
aS'kaahumanu_ii'
p3386
aS'matthew_stewart_4th_earl_of_lennox'
p3387
aS'nahienaena'
p3388
aS'mikolaj_krzysztof_the_orphan_radziwill'
p3389
aS'edward_vi_of_england'
p3390
aS'peter_ii_of_portugal'
p3391
aS'francis_ii_holy_roman_emperor'
p3392
aS'juan_de_borbon_count_of_barcelona'
p3393
aS'nancy_kelly'
p3394
aS'ottokar_ii_of_bohemia'
p3395
aS'harry_payne_whitney'
p3396
aS'prince_george_william_of_hanover'
p3397
aS'sancho_iii_of_navarre'
p3398
aS'thomas_stanley_1st_earl_of_derby'
p3399
aS'ermengarde_of_anjou'
p3400
aS'marguerite_louise_dorleans'
p3401
aS'edmund_stafford_5th_earl_of_stafford'
p3402
aS'fulvia'
p3403
aS'empress_xiaojing'
p3404
aS'anne_churchill'
p3405
aS'jean_piccard'
p3406
aS'walter_huston'
p3407
aS'hostilian'
p3408
aS'fawzia_shirin'
p3409
aS'nelle_wilson_reagan'
p3410
aS'bernhard_forster'
p3411
aS'prince_miguel_duke_of_viseu'
p3412
aS'burgess_meredith'
p3413
aS'guillaume_iv_grand_duke_of_luxembourg'
p3414
aS'alva_belmont'
p3415
aS'marilyn_cooper'
p3416
aS'zita_of_bourbon-parma'
p3417
aS'licinia_eudoxia'
p3418
aS'eric_bloodaxe'
p3419
aS'andrew_jackson'
p3420
aS'david_poe_jr'
p3421
aS'johnny_cash'
p3422
aS'fulk_iv_of_anjou'
p3423
aS'eduard_einstein'
p3424
aS'susan_fleming'
p3425
aS'jahangir'
p3426
aS'henry_ii_of_france'
p3427
aS'alfonso_of_spain_prince_of_asturias'
p3428
aS'ferdinand_ii_archduke_of_austria'
p3429
aS'feodor_i_of_russia'
p3430
aS'constance_of_arles'
p3431
aS'tao_i_the_elder'
p3432
aS'jane_wyman'
p3433
aS'dorothea_sophie_of_neuburg'
p3434
aS'hung_taiji'
p3435
aS'kekauluohi_likelike'
p3436
aS'lindsay_crosby'
p3437
aS'cleopatra_vii_of_egypt'
p3438
aS'isabella_of_portugal'
p3439
aS'vladimir_i_lenin'
p3440
aS'elisabeth_christine_of_brunswick_luneburg'
p3441
aS'william_howard_taft'
p3442
aS'anna_radziwill'
p3443
aS'susan_hufford'
p3444
aS'carloman_of_bavaria'
p3445
aS'oliver_cromwell'
p3446
aS'dorothy_davenport'
p3447
aS'oscar_i_of_sweden'
p3448
aS'ivan_asen_ii_of_bulgaria'
p3449
aS'johann_wilhelm_elector_palatine'
p3450
aS'bebe_daniels'
p3451
aS'paul_cezanne'
p3452
aS'francelia_billington'
p3453
aS'louis_jean_marie_de_bourbon_duc_de_penthievre'
p3454
aS'lee_krasner'
p3455
aS'archduchess_maria_dorothea_of_austria'
p3456
aS'john_iv_of_portugal'
p3457
aS'tom_and_eileen_lonergan'
p3458
aS'prince_umberto_count_of_salemi'
p3459
aS'leka_crown_prince_of_albania'
p3460
aS'crown_prince_euimin'
p3461
aS'marie_adelaide_of_savoy'
p3462
aS'raoul_i_count_of_vermandois'
p3463
aS'prince_alexander_of_hesse_and_by_rhine_darmstadt'
p3464
aS'yves_montand'
p3465
aS'josef_ferdinand'
p3466
aS'ronald_defeo_sr'
p3467
aS'ferdinand_i_of_aragon'
p3468
aS'louis_ii_grand_duke_of_hesse'
p3469
aS'peter_allen'
p3470
aS'infant_mullen'
p3471
aS'katherine_oshea'
p3472
aS'helen_allingham'
p3473
aS'mark_twain'
p3474
aS'karol_stanislaw_radziwill'
p3475
aS'prince_paul_of_wurttemberg'
p3476
aS'gaston_duke_of_orleans'
p3477
aS'gaius_octavius'
p3478
aS'archduke_franz_salvator_prince_of_tuscany'
p3479
aS'sitamun'
p3480
aS'carleton_young'
p3481
aS'arthur_kent_white'
p3482
aS'henry_fawcett'
p3483
aS'elizabeth_of_denmark'
p3484
aS'hugh_capet_of_france'
p3485
aS'ludu_daw_amar'
p3486
aS'john_of_gaunt_1st_duke_of_lancaster'
p3487
aS'amenhotep_i'
p3488
aS'emanuele_filiberto_2nd_duke_of_aosta'
p3489
aS'princess_louise_duchess_of_argyll'
p3490
aS'edwin_samuel_montagu'
p3491
aS'oswald_mosley'
p3492
aS'princess_beatrice_of_edinburgh_and_saxe-coburg-gotha'
p3493
aS'thomas_wriothesley_4th_earl_of_southampton'
p3494
aS'wenceslaus_king_of_the_romans'
p3495
aS'louis_armand_ii_de_bourbon_prince_de_conti'
p3496
aS'iosif_kheifits'
p3497
aS'zubeyde_hanim'
p3498
aS'cecily_of_york'
p3499
aS'grand_duke_michael_mihailovich_of_russia'
p3500
aS'saint_casimir'
p3501
aS'akhenaten'
p3502
aS'empress_ulanara'
p3503
aS'joanne_dru'
p3504
aS'zenaide_laetitia_julie_bonaparte'
p3505
aS'mary_of_hungary'
p3506
aS'louise_of_mecklenburg-strelitz'
p3507
aS'maria_francisca_sulzbach'
p3508
aS'john_viii_palaiologos'
p3509
aS'sydney_tafler'
p3510
aS'caroline_ferdinande_louise_duchesse_de_berry'
p3511
aS'christian_ernst_margrave_of_brandenburg_bayreuth'
p3512
aS'grand_duke_alexander_mikhailovich_of_russia'
p3513
aS'lex_barker'
p3514
aS'gertie_millar'
p3515
aS'prince_valdemar_of_denmark'
p3516
aS'alice_of_saluzzo'
p3517
aS'james_roosevelt_sr'
p3518
aS'gilbert_gallegos'
p3519
aS'lord_guildford_dudley'
p3520
aS'irina_pavlovna_paley'
p3521
aS'princess_margaretha_of_saxony'
p3522
aS'princess_elizabeth_of_the_united_kingdom'
p3523
aS'robert_todd_lincoln'
p3524
aS'otto_of_bavaria'
p3525
aS'maria_leopoldine_of_austria'
p3526
aS'marcia_otacilia_severa'
p3527
aS'michal_kazimierz_rybenko_radziwill'
p3528
aS'manfred_of_sicily'
p3529
aS'conrad_of_montferrat'
p3530
aS'aelia_eudoxia'
p3531
aS'henry_adams'
p3532
aS'maria_theresia_of_austria_este'
p3533
aS'robert_anderson_1917'
p3534
aS'edward_the_black_prince'
p3535
aS'benjamin_thompson'
p3536
aS'ferdinand_i_of_romania'
p3537
aS'grand_duchess_alexandra_alexandrovna_of_russia'
p3538
aS'alice_neville_5th_countess_of_salisbury'
p3539
aS'zoe_laurier'
p3540
aS'stanislaus_i_of_masovia'
p3541
aS'alexios_ii_komnenos'
p3542
aS'myra_keaton'
p3543
aS'penelope_blount_countess_of_devonshire'
p3544
aS'kira_kirillovna_of_russia'
p3545
aS'princess_elisabeth_of_saxe-altenburg'
p3546
aS'edith_frank_hollander'
p3547
aS'porfirio_rubirosa'
p3548
aS'margaret_pole_8th_countess_of_salisbury'
p3549
aS'kamisese_mara'
p3550
aS'andrew_carnegie'
p3551
aS'phillip_terry'
p3552
aS'lady_louisa_stuart'
p3553
aS'sviatopolk_ii_of_kiev'
p3554
aS'margarethe_of_bohemia'
p3555
aS'william_de_braose_lord_of_abergavenny'
p3556
aS'robert_gascoyne_cecil_3rd_marquess_of_salisbury'
p3557
aS'prince_edward_augustus_duke_of_york_and_albany'
p3558
aS'william_i_of_england'
p3559
aS'consort_shu'
p3560
aS'prince_wilhelm_of_prussia'
p3561
aS'johanna_von_puttkamer'
p3562
aS'louis_ii_of_hungary_and_bohemia'
p3563
aS'marie_of_edinburgh'
p3564
aS'stephen_fox'
p3565
aS'franz_i_prince_of_liechtenstein'
p3566
aS'hedwig_elizabeth_charlotte_of_holstein_gottorp'
p3567
aS'dorothy_collins'
p3568
aS'anna_brassey'
p3569
aS'walter_de_frece'
p3570
aS'margaret_of_flanders'
p3571
aS'julius_constantius'
p3572
aS'elisabeth_of_bavaria_1876'
p3573
aS'ali_riza_efendi'
p3574
aS'charles_william_ferdinand_duke_of_brunswick'
p3575
aS'christina_of_denmark'
p3576
aS'gustav_iv_adolf_of_sweden'
p3577
aS'dorothy_quincy'
p3578
aS'alfonso_ii_of_aragon'
p3579
aS'clotaire_i'
p3580
aS'marie_louise_duchess_of_parma'
p3581
aS'ursula_thiess'
p3582
aS'mary_fitzalan'
p3583
aS'george_i_landgrave_of_hesse_darmstadt'
p3584
aS'james_i_of_england'
p3585
aS'henry_v_holy_roman_emperor'
p3586
aS'julius_caesar'
p3587
aS'doris_keane'
p3588
aS'john_iii_sobieski'
p3589
aS'rose_mcconnell_long'
p3590
aS'henry_fox_1st_baron_holland'
p3591
aS'alfonso_xiii_of_spain'
p3592
aS'clovis_ii'
p3593
aS'maud_of_wales'
p3594
aS'louis_leakey'
p3595
aS'miriam_makeba'
p3596
aS'grand_duchess_anastasia_mikhailovna_of_russia'
p3597
aS'antonio_bagioli'
p3598
aS'william_iv_of_the_united_kingdom'
p3599
aS'charles_count_of_angouleme'
p3600
aS'clarence_brown'
p3601
aS'amos_bronson_alcott'
p3602
aS'kay_johnson'
p3603
aS'franz_werfel'
p3604
aS'empress_xiaohe_rui'
p3605
aS'frederick_henry_von_der_pfalz'
p3606
aS'canute_the_great'
p3607
aS'martha_bulloch'
p3608
aS'robert_rich_2nd_earl_of_warwick'
p3609
aS'ruth_ford'
p3610
aS'aspasia_manos'
p3611
aS'adelaide_of_lowenstein_wertheim_rosenberg'
p3612
aS'ferdinand_prince_of_asturias'
p3613
aS'marc_henry_bernard'
p3614
aS'tony_benn'
p3615
aS'humphrey_de_bohun_3rd_earl_of_hereford'
p3616
aS'wladyslaw_i_the_elbow_high'
p3617
aS'theodore_roosevelt'
p3618
aS'nam_phuong'
p3619
aS'thomas_grey_2nd_marquess_of_dorset'
p3620
aS'cleopatra_v_of_egypt'
p3621
aS'eudoxia_of_moscow'
p3622
aS'princess_sophia_of_the_united_kingdom'
p3623
aS'diana_mitford'
p3624
aS'irene_angelina'
p3625
aS'sylvia_sidney'
p3626
aS'judith_of_habsburg'
p3627
aS'peter_i_of_portugal'
p3628
aS'hugh_john_macdonald'
p3629
aS'ranavalona_i'
p3630
aS'sisavang_vong'
p3631
aS'maria_eleonora_of_brandenburg'
p3632
aS'herbert_marshall'
p3633
aS'billy_clanton'
p3634
aS'urraca_of_zamora_infanta_of_leon'
p3635
aS'lech_kaczynski'
p3636
aS'vesta_tilley'
p3637
aS'joseph_stalin'
p3638
aS'george_c_scott'
p3639
aS'joanna_of_bourbon'
p3640
aS'maurice_blackburn'
p3641
aS'princess_marie_isabelle_of_orleans'
p3642
aS'daniel_cady'
p3643
aS'lady_elizabeth_spencer'
p3644
aS'prince_harald_of_denmark'
p3645
aS'henry_scott_3rd_duke_of_buccleuch'
p3646
aS'domino_harvey'
p3647
aS'cenred_of_mercia'
p3648
aS'mary_of_burgundy'
p3649
aS'princess_victoria_of_saxe-coburg-saalfeld'
p3650
aS'constantine_viii'
p3651
aS'zauditu_of_ethiopia'
p3652
aS'morag_murray_abdullah'
p3653
aS'princess_beatrice_of_the_united_kingdom'
p3654
aS'wilhelmina_of_prussia_princess_of_orange'
p3655
aS'granville_leveson_gower_1st_earl_granville'
p3656
aS'henry_of_blois'
p3657
aS'ludwig_ii_of_bavaria'
p3658
aS'joan_de_geneville_baroness_geneville'
p3659
aS'alfred_duke_of_saxe_coburg_and_gotha'
p3660
aS'anthony_ashley_cooper_10th_earl_of_shaftesbury'
p3661
aS'sancha_of_castile'
p3662
aS'luigi_amedeo_duke_of_the_abruzzi'
p3663
aS'anna_mahler'
p3664
aS'frances_shand_kydd'
p3665
aS'sancho_i_of_portugal'
p3666
aS'elisabeth_richeza_of_poland'
p3667
aS'anabella_drummond'
p3668
aS'constance_of_france'
p3669
aS'christopher_i_of_denmark'
p3670
aS'sophia_charlotte_of_hanover'
p3671
aS'nair_de_teffe'
p3672
aS'domitia_lucilla'
p3673
aS'robert_erskine_childers'
p3674
aS'adolf_frederick_of_sweden'
p3675
aS'lloyd_gough'
p3676
aS'emmy_hennings'
p3677
aS'margaret_i_countess_of_artois'
p3678
aS'john_matthew_defeo'
p3679
aS'wheeler_oakman'
p3680
aS'lottie_collins'
p3681
aS'elizabeth_churchill_egerton'
p3682
aS'roger_i_of_sicily'
p3683
aS'philip_ober'
p3684
aS'charles_i_duke_of_mantua'
p3685
aS'irving_thalberg'
p3686
aS'elisabeth_ii_of_bohemia'
p3687
aS'martin_i_of_aragon'
p3688
aS'joseph_schenck'
p3689
aS'sabina_of_bavaria'
p3690
aS'puyi'
p3691
aS'william_godwin'
p3692
aS'maria_ludovika_of_austria_este'
p3693
aS'dorothea_of_denmark_electress_palatine'
p3694
aS'jean_gordon_countess_of_bothwell'
p3695
aS'maria_christina_of_the_two_sicilies'
p3696
aS'elisabeth_of_austria_1554'
p3697
aS'archduchess_maria_theresa_of_austria'
p3698
aS'geza_i_of_hungary'
p3699
aS'edmund_i_of_england'
p3700
aS'eva_marshal'
p3701
aS'edward_clinton_1st_earl_of_lincoln'
p3702
aS'elisabeth_of_bavaria'
p3703
aS'ruby_keeler'
p3704
aS'marie_jose_of_belgium'
p3705
aS'edward_hyde_1st_earl_of_clarendon'
p3706
aS'besarion_jughashvili'
p3707
aS'andrew_ii_of_hungary'
p3708
aS'dorothy_muriel_webster'
p3709
aS'henry_ii_duke_of_guise'
p3710
aS'elizabeth_macquarie'
p3711
aS'allan_forrest'
p3712
aS'matilda_of_ringelheim'
p3713
aS'mary_lee_fitzhugh_custis'
p3714
aS'john_churchill_1st_duke_of_marlborough'
p3715
aS'lilyan_tashman'
p3716
aS'jinpyeong_of_silla'
p3717
aS'grand_duke_nicholas_nicolaevich_the_younger'
p3718
aS'nicholas_i_of_montenegro'
p3719
aS'rebecca_latimer_felton'
p3720
aS'dick_haymes'
p3721
aS'bobby_troup'
p3722
aS'elsa_einstein'
p3723
aS'eleonore_of_solms_hohensolms_lich'
p3724
aS'pier_luigi_farnese_duke_of_parma'
p3725
aS'christiane_vulpius'
p3726
aS'noel_toy'
p3727
aS'caligula'
p3728
aS'emperor_tenji'
p3729
aS'joachim_ii_elector_of_brandenburg'
p3730
aS'james_ii_of_aragon'
p3731
aS'elizabeth_medora_leigh'
p3732
aS'klara_hitler'
p3733
aS'charles_x_of_france'
p3734
aS'lunalilo'
p3735
aS'leatrice_joy'
p3736
aS'siegfried_wagner'
p3737
aS'john_everett_millais'
p3738
aS'lady_mary_grey'
p3739
aS'margot_frank'
p3740
aS'ferdinand_duke_of_parma'
p3741
aS'charles_peirce'
p3742
aS'anne_lennard_countess_of_sussex'
p3743
aS'emperor_xuanzong_of_tang'
p3744
aS'alma_bridwell_white'
p3745
aS'ptolemy_xi_alexander_ii'
p3746
aS'francois_louis_prince_of_conti'
p3747
aS'caroline_princess_of_hanover'
p3748
aS'alfonso_ii_duke_of_ferrara'
p3749
aS'trajan'
p3750
aS'blanche_of_valois'
p3751
aS'nicholas_roerich'
p3752
aS'dixie_lee'
p3753
aS'helena_of_moscow'
p3754
aS'otho'
p3755
aS'leszek_i_the_white'
p3756
aS'candice_bergen'
p3757
aS'eleanor_powell'
p3758
aS'james_stanley_lord_strange'
p3759
aS'frederick_v_elector_palatine'
p3760
aS'roger_de_mortimer_1st_earl_of_march'
p3761
aS'maria_of_bytom'
p3762
aS'edith_nourse_rogers'
p3763
aS'eleanor_of_lancaster'
p3764
aS'michael_oshea'
p3765
aS'maria_anna_of_austria'
p3766
aS'maria_of_portugal'
p3767
aS'princess_josephine_caroline_of_belgium'
p3768
aS'infante_antonio_of_portugal'
p3769
aS'pauline_bush'
p3770
aS'charles_lederer'
p3771
aS'minnie_marx'
p3772
aS'charles_ii_of_naples'
p3773
aS'zbigniew_of_poland'
p3774
aS'robert_montgomery'
p3775
aS'susanne_ledermann'
p3776
aS'harriot_eaton_stanton_blatch'
p3777
aS'scribonia'
p3778
aS'francoise_dorleans_longueville'
p3779
aS'magdolna_purgly'
p3780
aS'mileva_maric'
p3781
aS'kasturba_gandhi'
p3782
aS'marie_of_hohenstaufen'
p3783
aS'charlotte_napoleone_bonaparte'
p3784
aS'audrey_hepburn'
p3785
aS'hortense_de_beauharnais'
p3786
aS'zeppo_marx'
p3787
aS'olaus_murie'
p3788
aS'richard_of_shrewsbury_1st_duke_of_york'
p3789
aS'chand_bibi'
p3790
aS'francis_seymour_conway_2nd_marquess_of_hertford'
p3791
aS'henry_fitzalan_19th_earl_of_arundel'
p3792
aS'william_x_of_aquitaine'
p3793
aS'arthur_hornblow_jr__1893'
p3794
aS'carloman_of_france'
p3795
aS'federico_fellini'
p3796
aS'carol_ii_of_romania'
p3797
aS'anne_marie_martinozzi'
p3798
aS'marie_of_orleans'
p3799
aS'francesco_iii_deste'
p3800
aS'effie_bancroft'
p3801
aS'samuel_gridley_howe'
p3802
aS'john_burnside_1916'
p3803
aS'mao_zedong'
p3804
aS'archibald_cleghorn'
p3805
aS'jinheung_of_silla'
p3806
aS'grand_duke_konstantin_nikolayevich_of_russia'
p3807
aS'corazon_aquino'
p3808
aS'goes_ahead'
p3809
aS'minamoto_no_yoriie'
p3810
aS'thomas_humphry_ward'
p3811
aS'dorothea_baird'
p3812
aS'galla'
p3813
aS'jonah_k_hi_kalanianaole'
p3814
aS'cecil_frances_humphreys_alexander'
p3815
aS'maria_christina_of_savoy'
p3816
aS'klementia_of_habsburg'
p3817
aS'robin_olds'
p3818
aS'alfred_ryder'
p3819
aS'ladislas_the_posthumous'
p3820
aS'ludwig_august_of_saxe-coburg-kohary'
p3821
aS'quentin_roosevelt'
p3822
aS'prince_alfred_of_edinburgh_and_saxe-coburg-gotha'
p3823
aS'prince_ferdinand_philippe_dorleans'
p3824
aS'edwina_mountbatten_countess_mountbatten_of_burma'
p3825
aS'catherine_of_valois'
p3826
aS'princess_victoria_of_hesse_and_by_rhine'
p3827
aS'archduchess_maria_anna'
p3828
aS'mustafa_ii'
p3829
aS'franklin_d_roosevelt'
p3830
aS'alain_i_of_albret'
p3831
aS'marie_anne_of_portugal'
p3832
aS'joan_blondell'
p3833
aS'agnes_macdonald'
p3834
aS'john_iii_doukas_vatatzes'
p3835
aS'william_gaskell'
p3836
aS'thomas_grey_1st_marquess_of_dorset'
p3837
aS'jutta_of_mecklenburg_strelitz'
p3838
aS'suleiman_the_magnificent'
p3839
aS'william_michael_rossetti'
p3840
aS'ekaterina_svanidze'
p3841
aS'prince_ferdinand_of_bavaria'
p3842
aS'janet_huntington_brewster'
p3843
aS'xenia_shestova'
p3844
aS'thomas_brassey'
p3845
aS'jeanne_de_laval'
p3846
aS'lenore_ulric'
p3847
aS'virginia_mayo'
p3848
aS'louise_amalie_of_brunswick_luneburg'
p3849
aS'marie_of_boulogne'
p3850
aS'herennia_etruscilla'
p3851
aS'nikolai_rimsky-korsakov'
p3852
aS'susanna_of_bavaria'
p3853
aS'christian_ix_of_denmark'
p3854
aS'angelica_van_buren'
p3855
aS'charles_phelps_taft_ii'
p3856
aS'waldorf_astor_2nd_viscount_astor'
p3857
aS'milton_bradford_clark'
p3858
aS'janusz_radziwill'
p3859
aS'pretty_shield'
p3860
aS'adolphe_menjou'
p3861
aS'june_allyson'
p3862
aS'judith_quiney'
p3863
aS'john_t_walton'
p3864
aS'maria_dobroniega_of_kiev'
p3865
aS'roza_laborfalvi'
p3866
aS'adeliza_of_louvain'
p3867
aS'prince_karl_anton_of_hohenzollern-sigmaringen'
p3868
aS'ferdinand_ii_holy_roman_emperor'
p3869
aS'john_i_of_portugal'
p3870
aS'richard_iii_of_england'
p3871
aS'princess_elisabeth_of_thurn_and_taxis'
p3872
aS'louis_the_german'
p3873
aS'maria_luisa_of_orleans'
p3874
aS'charles_john_gardiner_1st_earl_of_blessington'
p3875
aS'mieszko_iii_the_old'
p3876
aS'grant_withers'
p3877
aS'joseph_smith_sr'
p3878
aS'princess_anna_amalia_of_prussia'
p3879
aS'tyrone_power'
p3880
aS'bianca_lancia'
p3881
aS'louis_mountbatten_1st_earl_mountbatten_of_burma'
p3882
aS'blanche_of_lancaster'
p3883
aS'archduchess_maria_johanna_gabriela_of_austria'
p3884
aS'ivan_alexander_of_bulgaria'
p3885
aS'jeanne_devreux'
p3886
aS'ptolemy_iii_euergetes'
p3887
aS'jeannette_piccard'
p3888
aS'william_cavendish_5th_duke_of_devonshire'
p3889
aS'princess_dorothea_of_courland'
p3890
aS'gaius_caesar'
p3891
aS'julian_hawthorne'
p3892
aS'george_prince_brasov'
p3893
aS'steve_brodie_1919'
p3894
aS'william_clito'
p3895
aS'victoria_horne'
p3896
aS'john_ireland_1914'
p3897
aS'fridolin_weber'
p3898
aS'louis_duke_of_savoy'
p3899
aS'domitilla_the_elder'
p3900
aS'brooke_hayward'
p3901
aS'charlotte_of_mecklenburg-strelitz'
p3902
aS'august_strindberg'
p3903
aS'maria_anna_of_bavaria'
p3904
aS'esperanza_baur'
p3905
aS'archduke_joseph_karl_of_austria'
p3906
aS'philip_ii_duke_of_burgundy'
p3907
aS'anthony_ashley_cooper_lord_ashley'
p3908
aS'princess_stephanie_of_belgium'
p3909
aS'petronilla_of_aquitaine'
p3910
aS'prince_henry_of_the_netherlands'
p3911
aS'rupprecht_crown_prince_of_bavaria'
p3912
aS'venceslas_i_of_bohemia'
p3913
aS'louis_xviii_of_france'
p3914
aS'premislas_ii_of_poland'
p3915
aS'henry_iii_jules_de_bourbon_prince_de_conde'
p3916
aS'charlotte_of_belgium'
p3917
aS'tutankhamun'
p3918
aS'valaya_alongkorn'
p3919
aS'maud_fitzjohn'
p3920
aS'dagny_juel'
p3921
aS'philip_ii_of_france'
p3922
aS'charles_ix_of_france'
p3923
aS'moses'
p3924
aS'napoleon_louis_bonaparte'
p3925
aS'jack_hawkins'
p3926
aS'james_ii_of_england'
p3927
aS'albert_i_of_germany'
p3928
aS'kamehameha_i'
p3929
aS'phyllis_fraser'
p3930
aS'louis_auguste_de_bourbon_duke_of_maine'
p3931
aS'ramon_berenguer_i_count_of_barcelona'
p3932
aS'herbert_biberman'
p3933
aS'princess_mathilde_of_bavaria'
p3934
aS'olof_of_sweden'
p3935
aS'sophia_dorothea_of_celle'
p3936
aS'gaetano_polidori'
p3937
aS'marie_de_luxembourg_queen_of_france'
p3938
aS'grand_duke_boris_vladimirovich_of_russia'
p3939
aS'ann_dunham'
p3940
aS'magnus_vi_of_norway'
p3941
aS'fuad_i_of_egypt'
p3942
aS'herman_f_borgman'
p3943
aS'bess_meredyth'
p3944
aS'didius_julianus'
p3945
aS'emma_lady_hamilton'
p3946
aS'edward_iii_of_england'
p3947
aS'karl_i_of_austria'
p3948
aS'augustus_ii_the_strong'
p3949
aS'maria_leopoldina_of_austria'
p3950
aS'agnes_keith_countess_of_moray'
p3951
aS'tomislav_ii_of_croatia_4th_duke_of_aosta'
p3952
aS'ippolito_deste'
p3953
aS'emily_chubbuck'
p3954
aS'edmund_cobb'
p3955
aS'abigail_brown_brooks'
p3956
aS'constance_of_castile'
p3957
aS'john_osborne'
p3958
aS'john_ii_duke_of_sonderburg'
p3959
aS'lucius_caesar'
p3960
aS'hester_pitt_countess_of_chatham'
p3961
aS'dylan_thomas'
p3962
aS'brad_dexter'
p3963
aS'joan_fitzalan'
p3964
aS'george_jay_gould_i'
p3965
aS'philippe_comte_de_paris'
p3966
aS'empress_kojun'
p3967
aS'dewolf_hopper'
p3968
aS'prince_berthold_margrave_of_baden'
p3969
aS'louis_iii_prince_of_conde'
p3970
aS'rurik'
p3971
aS'richard_bache'
p3972
aS'william_duke_of_gloucester'
p3973
aS'princess_maria_theresa_of_braganza'
p3974
aS'adrienne_morrison'
p3975
aS'harry_helmsley'
p3976
aS'alice_hathaway_lee_roosevelt'
p3977
aS'princess_marie_louise_of_hanover_and_cumberland'
p3978
aS'eve_meyer'
p3979
aS'susanna_wesley'
p3980
aS'elizabeth_porter'
p3981
aS'servilia_caepionis'
p3982
aS'venceslaus_ii_of_bohemia'
p3983
aS'wilfrid_michael_voynich'
p3984
aS'chilperic_i'
p3985
aS'william_wyler'
p3986
aS'grey_owl'
p3987
aS'princess_frederica_of_hanover'
p3988
aS'sergei_yesenin'
p3989
aS'elizabeth_of_york_duchess_of_suffolk'
p3990
aS'marie_louise_of_bourbon-parma'
p3991
aS'aemilia_lepida'
p3992
aS'joseph_clemens_of_bavaria'
p3993
aS'virginia_christine'
p3994
aS'caroline_ingalls'
p3995
aS'louise_borgia'
p3996
aS'andre_morell'
p3997
aS'henry_vi_of_england'
p3998
aS'antoinette_charlotte_marie_josephine_karoline_frida'
p3999
aS'lya_mara'
p4000
aS'giuseppe_garibaldi'
p4001
aS'archibald_clunes_innes'
p4002
aS'james_francis_edward_stuart'
p4003
aS'john_stevens_cowans'
p4004
aS'james_duke_of_rothesay'
p4005
aS'arcadius'
p4006
aS'emilie_schindler'
p4007
aS'ethel_merman'
p4008
aS'princess_augusta_charlotte_of_wales'
p4009
aS'lady_margaret_clifford'
p4010
aS'otto_i_duke_of_brunswick_luneburg'
p4011
aS'cesare_borgia'
p4012
aS'henry_iii_of_castile'
p4013
aS'marie_prevost'
p4014
aS'floride_calhoun'
p4015
aS'constantia_of_sicily'
p4016
aS'charles_albert_of_sardinia'
p4017
aS'daniel_sickles'
p4018
aS'ptolemy_i_soter'
p4019
aS'richard_cromwell'
p4020
aS'jane_pierce'
p4021
aS'mary_of_sicily'
p4022
aS'margo'
p4023
aS'lovisa_of_sweden'
p4024
aS'ahmed_iii'
p4025
aS'charles_felix_of_sardinia'
p4026
aS'jean_simmons'
p4027
aS'qianlong_emperor'
p4028
aS'almodis_de_la_marche'
p4029
aS'adolphus_fitzgeorge'
p4030
aS'maria_of_navarre'
p4031
aS'michael_i_of_russia'
p4032
aS'edward_blake'
p4033
aS'oliver_belmont'
p4034
aS'prince_albert_victor_duke_of_clarence'
p4035
aS'hal_mohr'
p4036
aS'karen_morley'
p4037
aS'josephine_dillon'
p4038
aS'bezprym'
p4039
aS'mohammad_reza_pahlavi'
p4040
aS'marie_caroline_of_austria'
p4041
aS'william_ii_of_the_netherlands'
p4042
aS'raymond_scott'
p4043
aS'henry_vi_holy_roman_emperor'
p4044
aS'prince_eitel_friedrich_of_prussia'
p4045
aS'alexandrine_of_mecklenburg-schwerin'
p4046
aS'antoine_bibesco'
p4047
aS'louis_iv_of_france'
p4048
aS'mary_lasker'
p4049
aS'elizabeth_kortright_monroe'
p4050
aS'georg_i_frederick_karl_duke_of_saxe_meiningen'
p4051
aS'constantine_i_of_greece'
p4052
aS'maria_fyodorovna'
p4053
aS'ahhotep_i'
p4054
aS'james_campbell'
p4055
aS'sidney_herbert_1st_baron_herbert_of_lea'
p4056
aS'sybil_thomas_viscountess_rhondda'
p4057
aS'maria_anna_of_portugal'
p4058
aS'peter_ii_of_russia'
p4059
aS'doris_pawn'
p4060
aS'anthony_browne_1st_viscount_montagu'
p4061
aS'janusz_iii_mazowiecki'
p4062
aS'edgira'
p4063
aS'prince_henry_duke_of_gloucester'
p4064
aS'archduke_joseph_august_of_austria'
p4065
aS'regina_crown_princess_of_austria'
p4066
aS'wilhelmina_amalia_of_brunswick'
p4067
aS'louis_the_stammerer'
p4068
aS'joan_vollmer'
p4069
aS'helen_vinson'
p4070
aS'michael_viii_palaiologos'
p4071
aS'troy_donahue'
p4072
aS'gaius_marius'
p4073
aS'frances_adeline_seward'
p4074
aS'george_de_roerich'
p4075
aS'he_zizhen'
p4076
aS'prince_lennart_duke_of_smaland'
p4077
aS'charles_vi_holy_roman_emperor'
p4078
aS'josephine_earp'
p4079
aS'earl_winfield_spencer_jr'
p4080
aS'prince_philippe_count_of_flanders'
p4081
aS'soong_may-ling'
p4082
aS'henry_cromwell'
p4083
aS'josephine_ruffin'
p4084
aS'charlotte_de_valois'
p4085
aS'alexander_charles_vasa'
p4086
aS'william_p_hobby'
p4087
aS'bugsy_siegel'
p4088
aS'mary_dimmick_harrison'
p4089
aS'princess_louise_of_prussia'
p4090
aS'john_quincy_adams'
p4091
aS'princess_sophie_of_the_netherlands'
p4092
aS'isabella_of_england'
p4093
aS'ferdinand_i_of_leon'
p4094
aS'john_franklin'
p4095
aS'mindon_min'
p4096
aS'atia'
p4097
aS'john_c_cummings'
p4098
aS'joan_ii_of_navarre'
p4099
aS'francis_ii_duke_of_lorraine'
p4100
aS'sibylla_of_anjou'
p4101
aS'richard_neville_16th_earl_of_warwick'
p4102
aS'prince_nicholas_of_greece_and_denmark'
p4103
aS'reza_shah'
p4104
aS'charlotte_of_savoy'
p4105
aS'margaret_tudor'
p4106
aS'bobby_howes'
p4107
aS'george_talbot_6th_earl_of_shrewsbury'
p4108
aS'henry_ii_of_castile'
p4109
aS'letitia_christian_tyler'
p4110
aS'alexander_pistolkors'
p4111
aS'william_h_seward_jr'
p4112
aS'mieszko_ii_lambert'
p4113
aS'george_lewis_ruffin'
p4114
aS'gustav_mahler'
p4115
aS'lili_damita'
p4116
aS'gaetan_vestris'
p4117
aS'frederick_v_of_denmark'
p4118
aS'caroline_augusta_of_bavaria'
p4119
aS'edith_roosevelt'
p4120
aS'roberto_rossellini'
p4121
aS'rosalie_poe'
p4122
aS'abigail_kapiolani_kawananakoa'
p4123
aS'louise_of_the_netherlands'
p4124
aS'robert_dudley_styled_earl_of_warwick'
p4125
aS'william_s_burroughs'
p4126
aS'james_hamilton_1st_duke_of_abercorn'
p4127
aS'francesco_i_de_medici_grand_duke_of_tuscany'
p4128
aS'elisabeth_st_michel'
p4129
aS'sophia_baddeley'
p4130
aS'natalija_obrenovic'
p4131
aS'prince_christian_of_schleswig-holstein'
p4132
aS'maria_luisa_of_parma'
p4133
aS'christopher_of_bavaria'
p4134
aS'john_v_palaiologos'
p4135
aS'princess_marie_louise_of_schleswig-holstein'
p4136
aS'francis_of_spain'
p4137
aS'howard_hughes'
p4138
aS'alva_myrdal'
p4139
aS'prince_francis_of_teck'
p4140
aS'isabelle_comtesse_de_paris'
p4141
aS'mary_of_modena'
p4142
aS'sviatopolk_i_of_kiev'
p4143
aS'ivan_stephen_of_bulgaria'
p4144
aS'stanley_armour_dunham'
p4145
aS'charles_tupper'
p4146
aS'prince_carl_duke_of_vastergotland'
p4147
aS'khai_dinh'
p4148
aS'charles_macarthur'
p4149
aS'charlotte_lee_lady_baltimore'
p4150
aS'wolfgang_amadeus_mozart'
p4151
aS'charles_wesley'
p4152
aS'sancho_ii_of_portugal'
p4153
aS'geraldine_farrar'
p4154
aS'theodore_frelinghuysen_seward'
p4155
aS'andrzej_malkowski'
p4156
aS'stefan_lazarevic'
p4157
aS'james_fitzjames_1st_duke_of_berwick'
p4158
aS'mary_brandon_baroness_monteagle'
p4159
aS'ted_hughes'
p4160
aS'mandukhai_khatun'
p4161
aS'princess_anna_sophie_of_denmark'
p4162
aS'catherine_of_cleves'
p4163
aS'auguste_van_pels'
p4164
aS'frederick_christian_elector_of_saxony'
p4165
aS'elizabeth_of_pomerania'
p4166
aS'pippin_the_younger'
p4167
aS'ida_lupino'
p4168
aS'giovanni_dalle_bande_nere'
p4169
aS'zhenfei'
p4170
aS'maud_petty_fitzmaurice_marchioness_of_lansdowne'
p4171
aS'charles_russell_lowell'
p4172
aS'frank_oconnor_1897'
p4173
aS'gustav_prince_of_vasa'
p4174
aS'oleg_cassini'
p4175
aS'adolf_frederick_ii_duke_of_mecklenburg_strelitz'
p4176
aS'louise_henriette_de_bourbon_conti'
p4177
aS'maria_de_molina'
p4178
aS'john_beaufort_1st_earl_of_somerset'
p4179
aS'prince_francis_joseph_of_braganza'
p4180
aS'irina_godunova'
p4181
aS'sunandha'
p4182
aS'henry_iv_of_england'
p4183
aS'william_powell'
p4184
aS'karl_marx'
p4185
aS'miguel_ii_duke_of_braganza'
p4186
aS'william_lamb_2nd_viscount_melbourne'
p4187
aS'alfonso_iv_of_aragon'
p4188
aS'marie_josephine_louise_of_savoy'
p4189
aS'saint_margaret_of_scotland'
p4190
aS'princess_pauline_duchess_of_sagan'
p4191
aS'chiang_kai-shek'
p4192
aS'henry_fonda'
p4193
aS'nikolai_punin'
p4194
aS'edward_i_of_england'
p4195
aS'franz_joseph_ii_prince_of_liechtenstein'
p4196
aS'augustus_hervey_3rd_earl_of_bristol'
p4197
aS'adrian_scott'
p4198
aS'harald_i_of_denmark'
p4199
aS'majel_barrett'
p4200
aS'randolph_churchill'
p4201
aS'maria_duchess_of_gloucester_and_edinburgh'
p4202
aS'sydney_freeman_mitford_baroness_redesdale'
p4203
aS'albert_einstein'
p4204
aS'stephanie_of_hohenzollern_sigmaringen'
p4205
aS'robert_dudley_1st_earl_of_leicester'
p4206
aS'cynthia_spencer_countess_spencer'
p4207
aS'john_ii_of_portugal'
p4208
aS'saovabha'
p4209
aS'anne_de_croy'
p4210
aS'prince_kuni_kuniyoshi'
p4211
aS'david_halberstam'
p4212
aS'uta_hagen'
p4213
aS'titus'
p4214
aS'prince_franz_of_bavaria'
p4215
aS'gala_dali'
p4216
aS'ike_clanton'
p4217
aS'wallace_beery'
p4218
aS'ernst_johann_von_biron'
p4219
aS'w_averell_harriman'
p4220
aS'georgina_gascoyne_cecil_marchioness_of_salisbury'
p4221
aS'john_macbride'
p4222
aS'moody_currier'
p4223
aS'teresa_wright'
p4224
aS'ottokar_i_of_bohemia'
p4225
aS'squire_bancroft'
p4226
aS'margaret_millar'
p4227
aS'ernest_augustus_elector_of_brunswick_luneburg'
p4228
aS'william_hopper'
p4229
aS'helena_kantakouzene'
p4230
aS'louis_of_valois_duke_of_orleans'
p4231
aS'prince_maurice_of_the_netherlands'
p4232
aS'princess_patricia_of_connaught'
p4233
aS'henri_i_de_bourbon_prince_de_conde'
p4234
aS'safiye_sultan'
p4235
aS'mike_todd'
p4236
aS'john_howard_1st_duke_of_norfolk'
p4237
aS'eleanor_of_austria'
p4238
aS'mary_wollstonecraft'
p4239
aS'edward_hall_alderson'
p4240
aS'maria_anna_of_bavaria_1551'
p4241
aS'lynn_fontanne'
p4242
aS'gunilla_bielke'
p4243
aS'edward_baker_lincoln'
p4244
aS'prince_adolphus_duke_of_cambridge'
p4245
aS'max_reinhardt'
p4246
aS'diana_lewis'
p4247
aS'joan_of_england_queen_of_sicily'
p4248
aS'blanche_barrow'
p4249
aS'rani_mangammal'
p4250
aS'sophie_of_schonburg_waldenburg'
p4251
aS'collis_p_huntington'
p4252
aS'elisabeth_of_hesse'
p4253
aS'jacob_epstein'
p4254
aS'walt_disney'
p4255
aS'henry_i_of_germany'
p4256
aS'frederick_viii_duke_of_schleswig_holstein'
p4257
aS'edward_vii_of_the_united_kingdom'
p4258
aS'elizabeth_taylor'
p4259
aS'robert_rich_1st_earl_of_warwick'
p4260
aS'francis_iv_duke_of_modena'
p4261
aS'pearl_bailey'
p4262
aS'john_claudius_loudon'
p4263
aS'jack_pickford'
p4264
aS'georg_ritter_von_trapp'
p4265
aS'ordono_iii_of_leon'
p4266
aS'duchess_maria_dorothea_of_wurttemberg'
p4267
aS'yang_kaihui'
p4268
aS'john_profumo'
p4269
aS'albert_vii_archduke_of_austria'
p4270
aS'empress_dowager_cian'
p4271
aS'murtaza_bhutto'
p4272
aS'lili_uokalani'
p4273
aS'joan_beaufort_queen_of_scotland'
p4274
aS'princess_victoria_alexandra_of_the_united_kingdom'
p4275
aS'ludwig_iii_of_bavaria'
p4276
aS'mariam_of_georgia'
p4277
aS'frances_polidori'
p4278
aS'philip_i_landgrave_of_hesse'
p4279
aS'gerty_cori'
p4280
aS'henry_3rd_earl_of_lancaster'
p4281
aS'nicholas_ii_of_russia'
p4282
aS'alpheus_hyatt'
p4283
aS'ella_raines'
p4284
aS'prince_andrew_of_greece_and_denmark'
p4285
aS'tao_ii_the_brave'
p4286
aS'sigismund_holy_roman_emperor'
p4287
aS'jacques_lacan'
p4288
aS'agathe_whitehead'
p4289
aS'leopold_i_of_belgium'
p4290
aS'robert_baddeley'
p4291
aS'walter_wanger'
p4292
aS'jennie_churchill'
p4293
aS'infanta_isabella_clara_eugenia_of_spain'
p4294
aS'philippa_of_lancaster'
p4295
aS'constantine_vii'
p4296
aS'william_c_whitney'
p4297
aS'rebekah'
p4298
aS'robert_cecil_1st_viscount_cecil_of_chelwood'
p4299
aS'prince_rupert_of_the_rhine'
p4300
aS'edred_of_england'
p4301
aS'margaret_macdonald'
p4302
aS'louis_ix_landgrave_of_hesse_darmstadt'
p4303
aS'madelyn_dunham'
p4304
aS'alexander_melville_bell'
p4305
aS'helen_herron_taft'
p4306
aS'josephine_of_leuchtenberg'
p4307
aS'lou_henry_hoover'
p4308
aS'marie_antoinette'
p4309
aS'nurhaci'
p4310
aS'charles_martel'
p4311
aS'arthur_law'
p4312
aS'elzbieta_czyzewska'
p4313
aS'gene_roddenberry'
p4314
aS'ina_claire'
p4315
aS'lou_busch'
p4316
aS'galla_placidia'
p4317
aS'ura_ii'
p4318
aS'robert_borden'
p4319
aS'francisco_franco'
p4320
aS'roy_o_disney'
p4321
aS'yohannes_iv_of_ethiopia'
p4322
aS'stephen_ii_of_serbia'
p4323
aS'frederick_iv_elector_palatine'
p4324
aS'marie_of_montpellier'
p4325
aS'anne_of_brittany'
p4326
aS'thomas_howard_21st_earl_of_arundel'
p4327
aS'darius_iii_of_persia'
p4328
aS'errol_flynn'
p4329
aS'kapaakea'
p4330
aS'marie_josephe_of_saxony'
p4331
aS'ferdinando_ii_de_medici_grand_duke_of_tuscany'
p4332
aS'youlan_2nd_princess_chun'
p4333
aS'barbara_payton'
p4334
aS'betty_grable'
p4335
aS'princess_auguste_maria_of_bavaria'
p4336
aS'ferdinando_hastings_6th_earl_of_huntingdon'
p4337
aS'marie_therese_of_savoy'
p4338
aS'david_lean'
p4339
aS'robert_f_wagner_jr'
p4340
aS'elizabeth_of_bohemia'
p4341
aS'leopold_mozart'
p4342
aS'jadwiga_of_poland'
p4343
aS'joanna_of_navarre'
p4344
aS'abbas_ibn_ali'
p4345
aS'matt_quinn'
p4346
aS'peter_iv_of_aragon'
p4347
aS'esta_krakower'
p4348
aS'effie_gray'
p4349
aS'ingrid_bergman'
p4350
aS'commodus'
p4351
aS'princess_norina_matchabelli'
p4352
aS'janet_blair'
p4353
aS'georg_iii_duke_of_saxe_meiningen'
p4354
aS'milica_of_nemanja'
p4355
aS'jean_acker'
p4356
aS'gabriel_de_borbon'
p4357
aS'lucius_aelius'
p4358
aS'frederick_i_of_sweden'
p4359
aS'lynn_redgrave'
p4360
aS'jeffrey_hunter'
p4361
aS'sancho_ramirez_king_of_aragon_and_navarre'
p4362
aS'freya_von_moltke'
p4363
aS'charles_francois_paul_le_normant_de_tournehem'
p4364
aS'eleonora_maria_josefa_of_austria'
p4365
aS'matilda_of_brabant'
p4366
aS'clementine_of_orleans'
p4367
aS'mary_williamson_averell'
p4368
aS'elisabeth_i_of_bohemia'
p4369
aS'samia_gamal'
p4370
aS'nicolae_ceausescu'
p4371
aS'blanche_of_artois'
p4372
aS'theos_casimir_bernard'
p4373
aS'charles_vii_of_france'
p4374
aS'william_iv_prince_of_orange'
p4375
aS'margaret_plantagenet'
p4376
aS'lothair_of_france'
p4377
aS'john_duke_of_ostrogothia'
p4378
aS'william_randolph_hearst_jr'
p4379
aS'george_jessel'
p4380
aS'lady_anne_stanley'
p4381
aS'prince_friedrich_of_hesse_and_by_rhine'
p4382
aS'galeazzo_maria_sforza'
p4383
aS'amedeo_modigliani'
p4384
aS'farah_pahlavi'
p4385
aS'tiye'
p4386
aS'ivan_iii_of_russia'
p4387
aS'joceline_percy_11th_earl_of_northumberland'
p4388
aS'agnes_of_france_duchess_of_burgundy'
p4389
aS'august_leopold_of_saxe-coburg-kohary'
p4390
aS'william_allingham'
p4391
aS'robert_falcon_scott'
p4392
aS'perkin_warbeck'
p4393
aS'yves_allegret'
p4394
aS'grand_duke_george_alexandrovich_of_russia'
p4395
aS'peter_i_of_russia'
p4396
aS'faustina_the_younger'
p4397
aS'john_wesley'
p4398
aS'edward_seymour_1st_duke_of_somerset'
p4399
aS'marcus_junius_brutus'
p4400
aS'isabelle_of_hainaut'
p4401
aS'henry_stanley_4th_earl_of_derby'
p4402
aS'constanze_mozart'
p4403
aS'john_eaton'
p4404
aS'susan_cullen-ward'
p4405
aS'judith_barrett'
p4406
aS'jean_i_de_montfort'
p4407
aS'grover_cleveland'
p4408
aS'reine_davies'
p4409
aS'arthur_prince_of_wales'
p4410
aS'jane_seymour'
p4411
aS'rose_cleveland'
p4412
aS'h_h_asquith'
p4413
aS'henry_petty_fitzmaurice_6th_marquess_of_lansdowne'
p4414
aS'bob_marley'
p4415
aS'princess_mary_adelaide_of_cambridge'
p4416
aS'ada_lovelace'
p4417
aS'margaret_countess_of_blois'
p4418
aS'magnentius'
p4419
aS'henry_petty_fitzmaurice_4th_marquess_of_lansdowne'
p4420
aS'sunil_dutt'
p4421
aS'princess_sibylla_of_saxe-coburg_and_gotha'
p4422
aS'adelaide_of_paris'
p4423
aS'charles_i_duke_of_burgundy'
p4424
aS'luitpold_prince_regent_of_bavaria'
p4425
aS'sophia_peabody'
p4426
aS'fay_compton'
p4427
aS'jennie_tuttle_hobart'
p4428
aS'infanta_mariana_vitoria_of_portugal'
p4429
aS'helen_of_znojmo'
p4430
aS'maria_teresa_cybo_malaspina'
p4431
aS'karl_thomas_mozart'
p4432
aS'charlotte_aglae_of_orleans'
p4433
aS'prince_adalbert_of_prussia'
p4434
aS'chram'
p4435
aS'euphemia_de_ross'
p4436
aS'hal_b_wallis'
p4437
aS'henry_morton_stanley'
p4438
aS'victor_amadeus_ii_of_sardinia'
p4439
aS'natacha_rambova'
p4440
aS'philip_vi_of_france'
p4441
aS'fanny_brice'
p4442
aS'philippe_ii_duke_of_orleans'
p4443
aS'helene_danjou'
p4444
aS'charles_viii_of_sweden'
p4445
aS'turhan_hatice'
p4446
aS'natalie_schafer'
p4447
aS'anna_maria_luisa_de_medici'
p4448
aS'leopold_prince_of_salerno'
p4449
aS'barbara_radziwill'
p4450
aS'john_albert_vasa'
p4451
aS'arnold_duke_of_gelderland'
p4452
aS'stefan_uro_i_of_serbia'
p4453
aS'victoria_eugenia_of_battenberg'
p4454
aS'peter_i_of_yugoslavia'
p4455
aS'lucy_mack_smith'
p4456
aS'catherine_de_medici'
p4457
aS'norma_shearer'
p4458
aS'john_casimir_count_palatine_of_kleeburg'
p4459
aS'john_owen_dominis'
p4460
aS'william_randolph_hearst'
p4461
aS'john_ii_of_castile'
p4462
aS'eudokia_palaiologina'
p4463
aS'joan_of_england_queen_consort_of_scotland'
p4464
aS'hugh_of_vermandois'
p4465
aS'infanta_luisa_fernanda_duchess_of_montpensier'
p4466
aS'isabella_seymour_conway_marchioness_of_hertford'
p4467
aS'caesarion'
p4468
aS'evelyn_cavendish_duchess_of_devonshire'
p4469
aS'stateira_ii'
p4470
aS'aurora_quezon'
p4471
aS'tutte_lemkow'
p4472
aS'loretta_young'
p4473
aS'livia'
p4474
aS'alexander_graham_bell'
p4475
aS'daoguang_emperor'
p4476
aS'eleanor_de_clare'
p4477
aS'john_of_austria'
p4478
aS'haakon_vii_of_norway'
p4479
aS'enid_bennett'
p4480
aS'princess_ingeborg_of_denmark'
p4481
aS'ludwika_maria_gonzaga'
p4482
aS'edward_the_confessor'
p4483
aS'elia_kazan'
p4484
aS'george_barnes_1892'
p4485
aS'teresa_of_the_two_sicilies'
p4486
aS'ahmose-nefertari'
p4487
aS'claude_monet'
p4488
aS'charles_orlando_dauphin_of_france'
p4489
aS'jefferson_davis'
p4490
aS'kamehameha_v'
p4491
aS'lewis_j_selznick'
p4492
aS'maria_salviati'
p4493
aS'susanna_hall'
p4494
aS'dick_merrill'
p4495
aS'rudolf_ii_holy_roman_emperor'
p4496
aS'jason_moran'
p4497
aS'sigrid_the_haughty'
p4498
aS'sophia_magdalena_of_denmark'
p4499
aS'saskia_van_uylenburg'
p4500
aS'prince_albert_of_saxony_duke_of_teschen'
p4501
aS'laura_devon'
p4502
aS'christian_i_of_denmark'
p4503
aS'prince_alexander_of_hesse_and_by_rhine'
p4504
aS'james_iii_of_scotland'
p4505
aS'william_waldorf_astor_1st_viscount_astor'
p4506
aS'adolf_friedrich_iv_duke_of_mecklenburg_strelitz'
p4507
aS'charles_ii_grand_duke_of_mecklenburg_strelitz'
p4508
aS'manuel_i_of_portugal'
p4509
aS'john_i_of_aragon'
p4510
aS'albert_of_mainz'
p4511
aS'cornelia_sulla'
p4512
aS'julia_lennon'
p4513
aS'roland_west'
p4514
aS'francis_mcdonald'
p4515
aS'thomas_egerton_1st_viscount_brackley'
p4516
aS'archduchess_luise_princess_of_tuscany'
p4517
aS'galswintha'
p4518
aS'katherine_mortimer_countess_of_warwick'
p4519
aS'charles_beauclerk_1st_duke_of_st_albans'
p4520
aS'maria_anne_fitzherbert'
p4521
aS'maria_louisa_of_spain'
p4522
aS'francis_seymour_conway_3rd_marquess_of_hertford'
p4523
aS'mary_boleyn'
p4524
aS'william_kissam_vanderbilt'
p4525
aS'george_smith_1903'
p4526
aS'louise_diane_dorleans'
p4527
aS'wilhelmine_of_prussia'
p4528
aS'albert_i_of_belgium'
p4529
aS'wladyslaw_i_herman'
p4530
aS'buddy_elias'
p4531
aS'jean_wallace'
p4532
aS'alfonso_vi_of_castile'
p4533
aS'phil_harris'
p4534
aS'ankhesenpaaten'
p4535
aS'elizabeth_of_russia'
p4536
aS'ivy_cavendish_bentinck_duchess_of_portland'
p4537
aS'cosimo_iii_de_medici_grand_duke_of_tuscany'
p4538
aS'hetty_cary'
p4539
aS'gratian'
p4540
aS'julius_caesar_drusus'
p4541
aS'edward_smith_stanley_12th_earl_of_derby'
p4542
aS'rachel_wriothesley_lady_russell'
p4543
aS'dimitra_liani'
p4544
aS'frederica_charlotte_of_prussia'
p4545
aS'paul_friedrich_grand_duke_of_mecklenburg_schwerin'
p4546
aS'mary_of_teck'
p4547
aS'princess_maria_ludwiga_theresia_of_bavaria'
p4548
aS'gregory_bateson'
p4549
aS'giovanni_de_medici_il_popolano'
p4550
aS'araya_selassie_yohannes'
p4551
aS'w_e_b_du_bois'
p4552
aS'louise_goff_reece'
p4553
aS'sophia_paleologue'
p4554
aS'blanche_devreux'
p4555
aS'ottavio_farnese_duke_of_parma'
p4556
aS'alfred_lunt'
p4557
aS'kathleen_m_white'
p4558
aS'princess_louise_victoire_dorleans_alencon'
p4559
aS'john_elector_of_brandenburg'
p4560
aS'archduke_anton_victor_of_austria'
p4561
aS'john_v_of_portugal'
p4562
aS'james_whitmore'
p4563
aS'frederick_iv_of_denmark'
p4564
aS'philip_i_of_france'
p4565
aS'francoise_marguerite_de_sevigne'
p4566
aS'charles_ii_of_austria'
p4567
aS'william_of_blois'
p4568
aS'alfonso_viii_of_castile'
p4569
aS'raoul_walsh'
p4570
aS'maria_francisca_of_nemours'
p4571
aS'vsevolod_i_of_kiev'
p4572
aS'princess_friederike_luise_of_prussia'
p4573
aS'karen_sparck_jones'
p4574
aS'ernest_of_bavaria'
p4575
aS'william_gibbs_mcadoo'
p4576
aS'hilda_of_nassau'
p4577
aS'richard_fitzalan_10th_earl_of_arundel'
p4578
aS'tomas_masaryk'
p4579
aS'gummo_marx'
p4580
aS'erika_mann'
p4581
aS'francoise_rosay'
p4582
aS'george_byron_6th_baron_byron'
p4583
aS'andrew_johnson'
p4584
aS'marie_de_bourbon_duchess_of_montpensier'
p4585
aS'louis_of_etruria'
p4586
aS'valdemar_i_of_denmark'
p4587
aS'francois_duke_of_anjou'
p4588
aS'olga_valerianovna_paley'
p4589
aS'tallulah_bankhead'
p4590
aS'birendra_of_nepal'
p4591
aS'john_reed'
p4592
aS'theobald_ii_of_champagne'
p4593
aS'humphrey_de_bohun_4th_earl_of_hereford'
p4594
aS'thomas_boleyn_1st_earl_of_wiltshire'
p4595
aS'bhanurangsi_savangwongse'
p4596
aS'madeleine_renaud'
p4597
aS'ali_adil_shah_i'
p4598
aS'daniel_coit_gilman'
p4599
aS'louis_calhern'
p4600
aS'hatshepsut'
p4601
aS'lillian_lux'
p4602
aS'john_jacob_astor_vi'
p4603
aS'prince_karl_maria_luitpold_of_bavaria'
p4604
aS'jan_gies'
p4605
aS'michael_de_la_pole_2nd_earl_of_suffolk'
p4606
aS'anne_of_austria'
p4607
aS'hedvig_sophia_of_sweden'
p4608
aS'jan_jacobszoon_hinlopen'
p4609
aS'louis_bonaparte'
p4610
aS'victor_emmanuel_iii_of_italy'
p4611
aS'henri_comte_de_paris'
p4612
aS'kunigunde_of_austria'
p4613
aS'mrs_j_mullen'
p4614
aS'franz_joseph_i_of_austria'
p4615
aS'sylvia_plath'
p4616
aS'ernest_duke_of_bavaria'
p4617
aS'william_wilkerson'
p4618
aS'harriet_bosse'
p4619
aS'grand_duke_sergei_alexandrovich_of_russia'
p4620
aS'maria_miloslavskaya'
p4621
aS'christine_of_saxony'
p4622
aS'mikolaj_the_black_radziwill'
p4623
aS'abraham_lincoln'
p4624
aS'catherine_parr'
p4625
aS'olive_thomas'
p4626
aS'praskovia_saltykova'
p4627
aS'edmund_tudor_1st_earl_of_richmond'
p4628
aS'georg_nikolaus_von_nissen'
p4629
aS'maria_alexandrovna_of_hesse'
p4630
aS'nancy_astor_viscountess_astor'
p4631
aS'freddie_lennon'
p4632
aS'flavia_julia_constantia'
p4633
aS'juba_ii'
p4634
aS'manuel_ii_of_portugal'
p4635
aS'lena_kellogg'
p4636
aS'billie_burke'
p4637
aS'ian_onslow_dennistoun'
p4638
aS'mary_eleanor_bowes'
p4639
aS'luz_magsaysay'
p4640
aS'sidney_luft'
p4641
aS'philipp_of_saxe-coburg-kohary'
p4642
aS'philip_howard_20th_earl_of_arundel'
p4643
aS'alice_terry'
p4644
aS'afonso_prince_imperial_of_brazil'
p4645
aS'john_vi_of_portugal'
p4646
aS'mary_leakey'
p4647
aS'thyra'
p4648
aS'gracie_allen'
p4649
aS'antiochus_iii_the_great'
p4650
aS'jose_ferrer'
p4651
aS'stephen_of_england'
p4652
aS'trevor_howard'
p4653
aS'anna_von_schweidnitz'
p4654
aS'kunigunde_of_hohenstaufen'
p4655
aS'margaret_of_anjou'
p4656
aS'princess_ludovika_of_bavaria'
p4657
aS'hester_maria_elphinstone_viscountess_keith'
p4658
aS'theobald_i_of_navarre'
p4659
aS'corinne_calvet'
p4660
aS'mary_anne_of_austria'
p4661
aS'ivan_shishman_of_bulgaria'
p4662
aS'constance_ii_of_hohenstaufen'
p4663
aS'archduke_joseph_of_austria_palatine_of_hungary'
p4664
aS'francisco_solano_lopez'
p4665
aS'friederike_of_hesse_darmstadt'
p4666
aS'joseph_auslander'
p4667
aS'ethelberga_of_provence'
p4668
aS'charlotte_princess_royal'
p4669
aS'otto_von_habsburg'
p4670
aS'john_bromfield'
p4671
aS'bob_longenecker'
p4672
aS'alexander_iii_of_russia'
p4673
aS'prince_frederik_of_the_netherlands'
p4674
aS'alfonso_i_deste'
p4675
aS'lionel_edward_sackville_west_3rd_baron_sackville'
p4676
aS'malcolm_iii_of_scotland'
p4677
aS'princess_marina_petrovna_of_russia'
p4678
aS'lady_charlotte_maria_waldegrave'
p4679
aS'afonso_crown_prince_of_portugal'
p4680
aS'isabella_of_france'
p4681
aS'juliette_peirce'
p4682
aS'mary_stuart_countess_of_bute'
p4683
aS'hans_albert_einstein'
p4684
aS'louise_fazenda'
p4685
aS'dorothy_percy_countess_of_northumberland'
p4686
aS'christina_of_holstein-gottorp'
p4687
aS'sophie_of_wurttemberg'
p4688
aS'lothair_i'
p4689
aS'lazar_of_serbia'
p4690
aS'dennis_hopper'
p4691
aS'margaret_of_france_duchess_of_berry'
p4692
aS'hephaestion'
p4693
aS'john_farrow'
p4694
aS'prajadhipok'
p4695
aS'suleiman_ii'
p4696
aS'heinz_hitler'
p4697
aS'elizabeth_of_rhuddlan'
p4698
aS'annabella'
p4699
aS'kera_tamara'
p4700
aS'marilyn_monroe'
p4701
aS'jewel_carmen'
p4702
aS'bianca_maria_sforza'
p4703
aS'jean_stafford'
p4704
aS'khentkaus_ii'
p4705
aS'lady_elizabeth_mortimer'
p4706
aS'william_howitt'
p4707
aS'louis_dauphin_de_france'
p4708
aS'maria_sonia_bernard'
p4709
aS'garret_hobart'
p4710
aS'isabella_of_burgundy'
p4711
aS'natalia_sedova'
p4712
aS'alfonso_v_of_leon'
p4713
aS'karl_vollmoller'
p4714
aS'prince_ioann_konstantinovich_of_russia'
p4715
aS'desi_arnaz'
p4716
aS'marie_mosquini'
p4717
aS'dolley_madison'
p4718
aS'eric_vi_of_sweden'
p4719
aS'mrs_elmer_j_mcatee'
p4720
aS'clodia_pulchra'
p4721
aS'charles_buddy_rogers'
p4722
aS'william_of_winchester_lord_of_lunenburg'
p4723
aS'eadbald_of_kent'
p4724
aS'grand_duke_michael_nicolaievich_of_russia'
p4725
aS'maria_pavlovna_of_russia'
p4726
a.